******************************************************************************
             TMS320C2000 Linker PC v22.6.0                     
******************************************************************************
>> Linked Thu Jun 13 13:40:17 2024

OUTPUT FILE NAME:   <../rul_data_acquisition.out>
ENTRY POINT SYMBOL: "_c_int00"  address: 003f2e59


MEMORY CONFIGURATION

         name            origin    length      used     unused   attr    fill
----------------------  --------  ---------  --------  --------  ----  --------
PAGE 0:
  BEGINRAM              00000000   00000002  00000000  00000002  RWIX
  PRAML0                00008000   00001000  00000587  00000a79  RWIX
  OTP                   003d7800   00000400  00000000  00000400  RWIX
  FLASH                 003f0000   00007ff6  000033f7  00004bff  RWIX
  BEGINFLASH            003f7ff6   00000002  00000002  00000000  RWIX
  CSM_PWL               003f7ff8   00000008  00000000  00000008  RWIX
  IQTABLES              003fe000   00000b50  00000000  00000b50  RWIX
  IQTABLES2             003feb50   0000008c  00000000  0000008c  RWIX
  IQTABLES3             003febdc   000000aa  00000000  000000aa  RWIX
  BOOTROM               003ff27c   00000d44  00000000  00000d44  RWIX
  RESET                 003fffc0   00000002  00000000  00000002  RWIX
  VECTORS               003fffc2   0000003e  00000000  0000003e  RWIX

PAGE 1:
  RAMM0M1               00000002   000007fe  00000300  000004fe  RWIX
  DEV_EMU               00000880   00000105  00000004  00000101  RWIX
  SYS_PWR_CTL           00000985   00000003  00000003  00000000  RWIX
  FLASH_REGS            00000a80   00000060  00000008  00000058  RWIX
  CSM                   00000ae0   00000010  00000010  00000000  RWIX
  ADC_RESULT            00000b00   00000020  00000020  00000000  RWIX
  CPU_TIMER0            00000c00   00000008  00000008  00000000  RWIX
  CPU_TIMER1            00000c08   00000008  00000008  00000000  RWIX
  CPU_TIMER2            00000c10   00000008  00000008  00000000  RWIX
  PIE_CTRL              00000ce0   00000020  0000001a  00000006  RWIX
  PIE_VECT              00000d00   00000100  00000100  00000000  RWIX
  COMP1                 00006400   00000020  00000011  0000000f  RWIX
  COMP2                 00006420   00000020  00000011  0000000f  RWIX
  EPWM1                 00006800   00000040  00000040  00000000  RWIX
  EPWM2                 00006840   00000040  00000040  00000000  RWIX
  EPWM3                 00006880   00000040  00000040  00000000  RWIX
  EPWM4                 000068c0   00000040  00000040  00000000  RWIX
  ECAP1                 00006a00   00000020  00000020  00000000  RWIX
  GPIOCTRL              00006f80   00000040  00000040  00000000  RWIX
  GPIODAT               00006fc0   00000020  00000020  00000000  RWIX
  GPIOINT               00006fe0   00000020  0000000a  00000016  RWIX
  SYSTEM                00007010   00000020  0000001f  00000001  RWIX
  SPIA                  00007040   00000010  00000010  00000000  RWIX
  SCIA                  00007050   00000010  00000010  00000000  RWIX
  NMIINTRUPT            00007060   00000010  00000010  00000000  RWIX
  XINTRUPT              00007070   00000010  00000010  00000000  RWIX
  ADC                   00007100   00000080  00000051  0000002f  RWIX
  I2CA                  00007900   00000040  00000022  0000001e  RWIX
  PARTID                003d7fff   00000001  00000001  00000000  RWIX
  CSM_PWL               003f7ff8   00000008  00000008  00000000  RWIX


SECTION ALLOCATION MAP

 output                                  attributes/
section   page    origin      length       input sections
--------  ----  ----------  ----------   ----------------
.bss       0    00008000    00000000     UNINITIALIZED

.ebss      0    00008000    00000510     UNINITIALIZED
                  00008000    00000281     xcp_mem_default.obj (.ebss:_xcpMemReservedPoolsChunk)
                  00008281    00000001     MW_c28xGPIO.obj (.ebss)
                  00008282    00000036     rul_data_acquisition.obj (.ebss)
                  000082b8    00000008     xcp.obj (.ebss:_groupPacketLookup)
                  000082c0    000000fb     xcp_mem_default.obj (.ebss:_xcpMemMainChunk)
                  000083bb    00000005     xcp.obj (.ebss)
                  000083c0    00000048     xcp_mem_default.obj (.ebss:_xcpMemPoolDescriptors)
                  00008408    0000001e     xcp_ext_common.obj (.ebss)
                  00008426    00000018     f2802x_cputimers.obj (.ebss)
                  0000843e    00000002     rts2800_ml.lib : _lock.c.obj (.ebss:__lock)
                  00008440    00000042     datamodify_xcp.obj (.ebss)
                  00008482    0000001c     xcp_ext_classic_trigger.obj (.ebss)
                  0000849e    00000018     xcp_daq.obj (.ebss)
                  000084b6    00000008     xcp_transport.obj (.ebss:_txFifo)
                  000084be    00000002     rts2800_ml.lib : _lock.c.obj (.ebss:__unlock)
                  000084c0    00000008     xcp_standard.obj (.ebss)
                  000084c8    00000006     xcp_ext_mode.obj (.ebss:_xcpCustomTriggerFunction)
                  000084ce    00000006     xcp_mem_default.obj (.ebss:_xcpMemMainBlockSizes)
                  000084d4    00000006     xcp_mem_default.obj (.ebss:_xcpMemMainBlocksNumber)
                  000084da    00000006     rts2800_ml.lib : exit.c.obj (.ebss)
                  000084e0    00000006     rul_data_acquisition_data.obj (.ebss)
                  000084e6    00000005     xcp_frame_serial.obj (.ebss)
                  000084eb    00000001     MW_c28xGlobalInterrupts.obj (.ebss)
                  000084ec    00000004     xcp_transport.obj (.ebss:_rxFifo)
                  000084f0    00000004     xcp_ext_common.obj (.ebss:_xcpCurrentSimulationTimeInTicks)
                  000084f4    00000004     xcp_mem_default.obj (.ebss:_xcpMemCustomPoolDescriptors)
                  000084f8    00000004     xcp_mem_default.obj (.ebss)
                  000084fc    00000004     xcp_transport.obj (.ebss)
                  00008500    00000003     ert_main.obj (.ebss)
                  00008503    00000002     ert_main.obj (.ebss:_isRateRunning)
                  00008505    00000002     ert_main.obj (.ebss:_need2runFlags)
                  00008507    00000001     --HOLE--
                  00008508    00000002     rul_data_acquisition.obj (.ebss:_systemRan$3)
                  0000850a    00000002     rtiostream_serial_c28x_ext_xcp.obj (.ebss)
                  0000850c    00000002     xcp_calibration.obj (.ebss)
                  0000850e    00000002     xcp_drv_rtiostream.obj (.ebss)

DevEmuRegsFile 
*          1    00000880    00000004     UNINITIALIZED
                  00000880    00000004     F2802x_GlobalVariableDefs.obj (DevEmuRegsFile)

SysPwrCtrlRegsFile 
*          1    00000985    00000003     UNINITIALIZED
                  00000985    00000003     F2802x_GlobalVariableDefs.obj (SysPwrCtrlRegsFile)

FlashRegsFile 
*          1    00000a80    00000008     UNINITIALIZED
                  00000a80    00000008     F2802x_GlobalVariableDefs.obj (FlashRegsFile)

CsmRegsFile 
*          1    00000ae0    00000010     UNINITIALIZED
                  00000ae0    00000010     F2802x_GlobalVariableDefs.obj (CsmRegsFile)

AdcResultFile 
*          1    00000b00    00000020     UNINITIALIZED
                  00000b00    00000020     F2802x_GlobalVariableDefs.obj (AdcResultFile)

CpuTimer0RegsFile 
*          1    00000c00    00000008     UNINITIALIZED
                  00000c00    00000008     F2802x_GlobalVariableDefs.obj (CpuTimer0RegsFile)

CpuTimer1RegsFile 
*          1    00000c08    00000008     UNINITIALIZED
                  00000c08    00000008     F2802x_GlobalVariableDefs.obj (CpuTimer1RegsFile)

CpuTimer2RegsFile 
*          1    00000c10    00000008     UNINITIALIZED
                  00000c10    00000008     F2802x_GlobalVariableDefs.obj (CpuTimer2RegsFile)

PieCtrlRegsFile 
*          1    00000ce0    0000001a     UNINITIALIZED
                  00000ce0    0000001a     F2802x_GlobalVariableDefs.obj (PieCtrlRegsFile)

PieVectTableFile 
*          1    00000d00    00000100     UNINITIALIZED
                  00000d00    00000100     F2802x_GlobalVariableDefs.obj (PieVectTableFile)

EmuKeyVar 
*          1    00000d00    00000001     UNINITIALIZED
                  00000d00    00000001     F2802x_GlobalVariableDefs.obj (EmuKeyVar)

EmuBModeVar 
*          1    00000d01    00000001     UNINITIALIZED
                  00000d01    00000001     F2802x_GlobalVariableDefs.obj (EmuBModeVar)

FlashCallbackVar 
*          1    00000d02    00000002     UNINITIALIZED
                  00000d02    00000002     F2802x_GlobalVariableDefs.obj (FlashCallbackVar)

FlashScalingVar 
*          1    00000d04    00000002     UNINITIALIZED
                  00000d04    00000002     F2802x_GlobalVariableDefs.obj (FlashScalingVar)

Comp1RegsFile 
*          1    00006400    00000011     UNINITIALIZED
                  00006400    00000011     F2802x_GlobalVariableDefs.obj (Comp1RegsFile)

Comp2RegsFile 
*          1    00006420    00000011     UNINITIALIZED
                  00006420    00000011     F2802x_GlobalVariableDefs.obj (Comp2RegsFile)

EPwm1RegsFile 
*          1    00006800    00000040     UNINITIALIZED
                  00006800    00000040     F2802x_GlobalVariableDefs.obj (EPwm1RegsFile)

EPwm2RegsFile 
*          1    00006840    00000040     UNINITIALIZED
                  00006840    00000040     F2802x_GlobalVariableDefs.obj (EPwm2RegsFile)

EPwm3RegsFile 
*          1    00006880    00000040     UNINITIALIZED
                  00006880    00000040     F2802x_GlobalVariableDefs.obj (EPwm3RegsFile)

EPwm4RegsFile 
*          1    000068c0    00000040     UNINITIALIZED
                  000068c0    00000040     F2802x_GlobalVariableDefs.obj (EPwm4RegsFile)

ECap1RegsFile 
*          1    00006a00    00000020     UNINITIALIZED
                  00006a00    00000020     F2802x_GlobalVariableDefs.obj (ECap1RegsFile)

GpioCtrlRegsFile 
*          1    00006f80    00000040     UNINITIALIZED
                  00006f80    00000040     F2802x_GlobalVariableDefs.obj (GpioCtrlRegsFile)

GpioDataRegsFile 
*          1    00006fc0    00000020     UNINITIALIZED
                  00006fc0    00000020     F2802x_GlobalVariableDefs.obj (GpioDataRegsFile)

GpioIntRegsFile 
*          1    00006fe0    0000000a     UNINITIALIZED
                  00006fe0    0000000a     F2802x_GlobalVariableDefs.obj (GpioIntRegsFile)

SysCtrlRegsFile 
*          1    00007010    0000001f     UNINITIALIZED
                  00007010    0000001f     F2802x_GlobalVariableDefs.obj (SysCtrlRegsFile)

SpiaRegsFile 
*          1    00007040    00000010     UNINITIALIZED
                  00007040    00000010     F2802x_GlobalVariableDefs.obj (SpiaRegsFile)

SciaRegsFile 
*          1    00007050    00000010     UNINITIALIZED
                  00007050    00000010     F2802x_GlobalVariableDefs.obj (SciaRegsFile)

NmiIntruptRegsFile 
*          1    00007060    00000010     UNINITIALIZED
                  00007060    00000010     F2802x_GlobalVariableDefs.obj (NmiIntruptRegsFile)

XIntruptRegsFile 
*          1    00007070    00000010     UNINITIALIZED
                  00007070    00000010     F2802x_GlobalVariableDefs.obj (XIntruptRegsFile)

AdcRegsFile 
*          1    00007100    00000051     UNINITIALIZED
                  00007100    00000051     F2802x_GlobalVariableDefs.obj (AdcRegsFile)

I2caRegsFile 
*          1    00007900    00000022     UNINITIALIZED
                  00007900    00000022     F2802x_GlobalVariableDefs.obj (I2caRegsFile)

PartIdRegsFile 
*          1    003d7fff    00000001     UNINITIALIZED
                  003d7fff    00000001     F2802x_GlobalVariableDefs.obj (PartIdRegsFile)

CsmPwlFile 
*          1    003f7ff8    00000008     UNINITIALIZED
                  003f7ff8    00000008     F2802x_GlobalVariableDefs.obj (CsmPwlFile)

.text      0    003f0077    00003076     
                  003f0077    00000c16     xcp_daq.obj (.text)
                  003f0c8d    00000481     xcp_mem_default.obj (.text)
                  003f110e    000003b5     xcp.obj (.text)
                  003f14c3    000002ea     xcp_transport.obj (.text)
                  003f17ad    0000022c     f2802x_adc.obj (.text)
                  003f19d9    00000225     xcp_standard.obj (.text)
                  003f1bfe    0000020f     xcp_frame_serial.obj (.text)
                  003f1e0d    000001c4     xcp_ext_classic_trigger.obj (.text)
                  003f1fd1    0000018e     xcp_ext_common.obj (.text)
                  003f215f    0000016e     xcp_ext_mode.obj (.text)
                  003f22cd    00000164     xcp_drv_rtiostream.obj (.text)
                  003f2431    00000141     MW_c28xGPIO.obj (.text)
                  003f2572    00000138     f2802x_sysctrl.obj (.text)
                  003f26aa    0000012d     rtiostream_serial_c28x_ext_xcp.obj (.text)
                  003f27d7    0000010f     rul_data_acquisition.obj (.text)
                  003f28e6    00000100     ert_main.obj (.text)
                  003f29e6    000000ff     f2802x_defaultisr.obj (.text:retain)
                  003f2ae5    000000d2     xcp_calibration.obj (.text)
                  003f2bb7    000000b9     datamodify_xcp.obj (.text)
                  003f2c70    00000073     f2802x_cputimers.obj (.text)
                  003f2ce3    00000062     xcp_fifo.obj (.text)
                  003f2d45    00000060     MW_c28xx_adc.obj (.text)
                  003f2da5    0000005a     rts2800_ml.lib : fs_mpy28.asm.obj (.text)
                  003f2dff    0000005a     xcp_utils.obj (.text)
                  003f2e59    00000054     rts2800_ml.lib : boot28.asm.obj (.text)
                  003f2ead    0000004d     c2802xSchedulerTimer0.obj (.text)
                  003f2efa    00000034     MW_c28xx_board.obj (.text)
                  003f2f2e    0000002b     c2802xSchedulerTimer0.obj (.text:retain)
                  003f2f59    00000029     rts2800_ml.lib : exit.c.obj (.text)
                  003f2f82    00000029                    : fs_tol28.asm.obj (.text)
                  003f2fab    00000028     f2802x_piectrl.obj (.text)
                  003f2fd3    00000026     f2802x_pievect.obj (.text)
                  003f2ff9    00000024     rts2800_ml.lib : cpy_tbl.c.obj (.text)
                  003f301d    0000001f     xcp_ext_param_default_serial.obj (.text)
                  003f303c    0000001d     rts2800_ml.lib : memcpy.c.obj (.text)
                  003f3059    00000017                    : fs_cmp28.asm.obj (.text)
                  003f3070    00000014     MW_c28xGlobalInterrupts.obj (.text)
                  003f3084    00000013     rts2800_ml.lib : ul_tofs28.asm.obj (.text)
                  003f3097    00000011                    : args_main.c.obj (.text)
                  003f30a8    00000010                    : u_tofs28.asm.obj (.text)
                  003f30b8    0000000f     c2802xBoard_Realtime_Support.obj (.text)
                  003f30c7    0000000b     rts2800_ml.lib : u_div28.asm.obj (.text)
                  003f30d2    00000009                    : _lock.c.obj (.text)
                  003f30db    00000008     f2802x_codestartbranch.obj (.text)
                  003f30e3    00000007     rts2800_ml.lib : memset.c.obj (.text)
                  003f30ea    00000002                    : pre_init.c.obj (.text)
                  003f30ec    00000001                    : startup.c.obj (.text)

.switch    0    003f33da    0000001e     
                  003f33da    0000001e     xcp.obj (.switch:_genericOutputPacketHandler)

.cinit     0    003f3270    0000016a     
                  003f3270    0000005b     xcp_ext_classic_trigger.obj (.cinit)
                  003f32cb    0000004c     xcp_ext_common.obj (.cinit)
                  003f3317    0000001e     xcp_daq.obj (.cinit)
                  003f3335    00000014     xcp.obj (.cinit)
                  003f3349    00000014     xcp_frame_serial.obj (.cinit)
                  003f335d    0000000f     xcp_standard.obj (.cinit)
                  003f336c    0000000e     rts2800_ml.lib : exit.c.obj (.cinit)
                  003f337a    00000009     xcp_mem_default.obj (.cinit:_xcpMemMainBlockSizes)
                  003f3383    00000009     xcp_mem_default.obj (.cinit:_xcpMemMainBlocksNumber)
                  003f338c    00000009     rul_data_acquisition_data.obj (.cinit)
                  003f3395    00000008     xcp_drv_rtiostream.obj (.cinit)
                  003f339d    00000008     xcp_transport.obj (.cinit)
                  003f33a5    00000005     rts2800_ml.lib : _lock.c.obj (.cinit:__lock)
                  003f33aa    00000005                    : _lock.c.obj (.cinit:__unlock)
                  003f33af    00000005     ert_main.obj (.cinit:_isRateRunning)
                  003f33b4    00000005     ert_main.obj (.cinit:_need2runFlags)
                  003f33b9    00000005     xcp_ext_common.obj (.cinit:_xcpCurrentSimulationTimeInTicks)
                  003f33be    00000005     rtiostream_serial_c28x_ext_xcp.obj (.cinit)
                  003f33c3    00000005     xcp_calibration.obj (.cinit)
                  003f33c8    00000004     MW_c28xGPIO.obj (.cinit)
                  003f33cc    00000004     MW_c28xGlobalInterrupts.obj (.cinit)
                  003f33d0    00000004     ert_main.obj (.cinit)
                  003f33d4    00000004     rul_data_acquisition.obj (.cinit)
                  003f33d8    00000002     --HOLE-- [fill = 0]

.pinit     0    003f0000    00000000     UNINITIALIZED

.econst    0    003f30ee    00000182     
                  003f30ee    00000100     f2802x_pievect.obj (.econst:_PieVectTableInit)
                  003f31ee    00000048     xcp_daq.obj (.econst:_daqSupportedRxPacket)
                  003f3236    0000002a     xcp_standard.obj (.econst:_standardSupportedRxPacket)
                  003f3260    0000000c     xcp_calibration.obj (.econst:_calibrationSupportedRxPacket)
                  003f326c    00000004     rul_data_acquisition.obj (.econst)

.reset     0    003fffc0    00000002     DSECT
                  003fffc0    00000002     rts2800_ml.lib : boot28.asm.obj (.reset)

.data      0    00008000    00000000     UNINITIALIZED

.stack     1    00000002    00000300     UNINITIALIZED
                  00000002    00000300     --HOLE--

codestart 
*          0    003f7ff6    00000002     
                  003f7ff6    00000002     f2802x_codestartbranch.obj (codestart)

ramfuncs   0    003f0000    00000077     RUN ADDR = 00008510
                  003f0000    0000002f     rtiostream_serial_c28x_ext_xcp.obj (ramfuncs:retain)
                  003f002f    00000029     datamodify_xcp.obj (ramfuncs)
                  003f0058    0000001b     f2802x_sysctrl.obj (ramfuncs)
                  003f0073    00000004     f2802x_usdelay.obj (ramfuncs)

MODULE SUMMARY

       Module                               code    initialized data   uninitialized data
       ------                               ----    ----------------   ------------------
    <current directory>
       xcp_daq.obj                          3094    102                24                
       xcp_mem_default.obj                  1153    18                 984               
       F2802x_GlobalVariableDefs.obj        0       0                  1022              
       xcp.obj                              949     50                 13                
       xcp_transport.obj                    746     8                  16                
       xcp_standard.obj                     549     57                 8                 
       xcp_ext_classic_trigger.obj          452     91                 28                
       f2802x_adc.obj                       556     0                  0                 
       xcp_frame_serial.obj                 527     20                 5                 
       xcp_ext_common.obj                   398     81                 34                
       rtiostream_serial_c28x_ext_xcp.obj   395     5                  2                 
       xcp_ext_mode.obj                     366     0                  6                 
       f2802x_sysctrl.obj                   366     0                  0                 
       xcp_drv_rtiostream.obj               356     8                  2                 
       rul_data_acquisition.obj             271     8                  56                
       datamodify_xcp.obj                   267     0                  66                
       MW_c28xGPIO.obj                      321     4                  1                 
       f2802x_pievect.obj                   38      256                0                 
       ert_main.obj                         256     14                 7                 
       f2802x_defaultisr.obj                255     0                  0                 
       xcp_calibration.obj                  210     17                 2                 
       f2802x_cputimers.obj                 115     0                  24                
       c2802xSchedulerTimer0.obj            120     0                  0                 
       xcp_fifo.obj                         98      0                  0                 
       MW_c28xx_adc.obj                     96      0                  0                 
       xcp_utils.obj                        90      0                  0                 
       MW_c28xx_board.obj                   52      0                  0                 
       f2802x_piectrl.obj                   40      0                  0                 
       xcp_ext_param_default_serial.obj     31      0                  0                 
       MW_c28xGlobalInterrupts.obj          20      4                  1                 
       c2802xBoard_Realtime_Support.obj     15      0                  0                 
       rul_data_acquisition_data.obj        0       9                  6                 
       f2802x_codestartbranch.obj           10      0                  0                 
       f2802x_usdelay.obj                   8       0                  0                 
    +--+------------------------------------+-------+------------------+--------------------+
       Total:                               12220   752                2307              
                                                                                         
    C:/PROGRA~3/MATLAB/tic2000/3P778C~1.INS/TIC28X~1.INS/TI-CGT~1.LTS/lib/rts2800_ml.lib
       fs_mpy28.asm.obj                     90      0                  0                 
       boot28.asm.obj                       84      0                  0                 
       exit.c.obj                           41      14                 6                 
       fs_tol28.asm.obj                     41      0                  0                 
       cpy_tbl.c.obj                        36      0                  0                 
       memcpy.c.obj                         29      0                  0                 
       _lock.c.obj                          9       10                 4                 
       fs_cmp28.asm.obj                     23      0                  0                 
       ul_tofs28.asm.obj                    19      0                  0                 
       args_main.c.obj                      17      0                  0                 
       u_tofs28.asm.obj                     16      0                  0                 
       u_div28.asm.obj                      11      0                  0                 
       memset.c.obj                         7       0                  0                 
       pre_init.c.obj                       2       0                  0                 
       startup.c.obj                        1       0                  0                 
    +--+------------------------------------+-------+------------------+--------------------+
       Total:                               426     24                 10                
                                                                                         
       Stack:                               0       0                  768               
    +--+------------------------------------+-------+------------------+--------------------+
       Grand Total:                         12646   776                3085              


GLOBAL DATA SYMBOLS: SORTED BY DATA PAGE

address     data page           name
--------    ----------------    ----
00000002       0 (00000000)     __stack

00000880      22 (00000880)     _DevEmuRegs

00000985      26 (00000980)     _SysPwrCtrlRegs

00000a80      2a (00000a80)     _FlashRegs

00000ae0      2b (00000ac0)     _CsmRegs

00000b00      2c (00000b00)     _AdcResult

00000c00      30 (00000c00)     _CpuTimer0Regs
00000c08      30 (00000c00)     _CpuTimer1Regs
00000c10      30 (00000c00)     _CpuTimer2Regs

00000ce0      33 (00000cc0)     _PieCtrlRegs

00000d00      34 (00000d00)     _EmuKey
00000d00      34 (00000d00)     _PieVectTable
00000d01      34 (00000d00)     _EmuBMode
00000d02      34 (00000d00)     _Flash_CallbackPtr
00000d04      34 (00000d00)     _Flash_CPUScaleFactor

00006400     190 (00006400)     _Comp1Regs
00006420     190 (00006400)     _Comp2Regs

00006800     1a0 (00006800)     _EPwm1Regs

00006840     1a1 (00006840)     _EPwm2Regs

00006880     1a2 (00006880)     _EPwm3Regs

000068c0     1a3 (000068c0)     _EPwm4Regs

00006a00     1a8 (00006a00)     _ECap1Regs

00006f80     1be (00006f80)     _GpioCtrlRegs

00006fc0     1bf (00006fc0)     _GpioDataRegs
00006fe0     1bf (00006fc0)     _GpioIntRegs

00007010     1c0 (00007000)     _SysCtrlRegs

00007040     1c1 (00007040)     _SpiaRegs
00007050     1c1 (00007040)     _SciaRegs
00007060     1c1 (00007040)     _NmiIntruptRegs
00007070     1c1 (00007040)     _XIntruptRegs

00007100     1c4 (00007100)     _AdcRegs

00007900     1e4 (00007900)     _I2caRegs

00008281     20a (00008280)     _GPIO_oneTimeInit
00008282     20a (00008280)     _MW_adcInitFlag
0000828e     20a (00008280)     _rul_data_acquisition_B

00008408     210 (00008400)     _xcpModelStartRequest
00008409     210 (00008400)     _xcpModelStopRequest
0000840a     210 (00008400)     _xcpModelStatus
0000840b     210 (00008400)     _xcpExtmodeSimulationComplete
0000840e     210 (00008400)     _xcpModelChecksum0
00008410     210 (00008400)     _xcpModelChecksum1
00008412     210 (00008400)     _xcpModelChecksum2
00008414     210 (00008400)     _xcpModelChecksum3
00008416     210 (00008400)     _xcpModelIntegerCode
00008418     210 (00008400)     _xcpExtmodeFinalSimulationTime
0000841a     210 (00008400)     _xcpDummyDoubleVariable
00008426     210 (00008400)     _CpuTimer0
0000842e     210 (00008400)     _CpuTimer1
00008436     210 (00008400)     _CpuTimer2
0000843e     210 (00008400)     __lock

00008440     211 (00008440)     _queRx

00008482     212 (00008480)     _xcpClassicTriggerEventId
00008483     212 (00008480)     _xcpClassicTriggerSignalAddressExtension
00008484     212 (00008480)     _xcpClassicTriggerDirection
00008485     212 (00008480)     _xcpClassicTriggerArmRequest
00008486     212 (00008480)     _xcpClassicTriggerCancelRequest
00008487     212 (00008480)     _xcpClassicTriggerSource
00008488     212 (00008480)     _xcpClassicTriggerMode
00008489     212 (00008480)     _xcpClassicTriggerStatus
00008490     212 (00008480)     _xcpClassicTriggerSignalAddress
00008492     212 (00008480)     _xcpClassicTriggerLevel
00008494     212 (00008480)     _xcpClassicTriggerDuration
00008496     212 (00008480)     _xcpClassicTriggerHoldOff
00008498     212 (00008480)     _xcpClassicTriggerDelay
000084be     212 (00008480)     __unlock

000084da     213 (000084c0)     ___TI_enable_exit_profile_output
000084dc     213 (000084c0)     ___TI_cleanup_ptr
000084de     213 (000084c0)     ___TI_dtors_ptr
000084e0     213 (000084c0)     _rul_data_acquisition_P
000084eb     213 (000084c0)     _MW_InterruptDisableLock
000084f0     213 (000084c0)     _xcpCurrentSimulationTimeInTicks

00008500     214 (00008500)     _IsrOverrun
00008501     214 (00008500)     _stopRequested
00008502     214 (00008500)     _runModel
00008503     214 (00008500)     _isRateRunning
00008505     214 (00008500)     _need2runFlags
0000850a     214 (00008500)     _MW_SCI_PTR

003d7fff    f5ff (003d7fc0)     _PartIdRegs

003f30ee    fcc3 (003f30c0)     _PieVectTableInit

003f326e    fcc9 (003f3240)     _rul_data_acquisition_M

003f7ff8    fdff (003f7fc0)     _CsmPwl


GLOBAL SYMBOLS: SORTED ALPHABETICALLY BY Name 

page  address   name                                            
----  -------   ----                                            
0     00008000  .bss                                            
0     00008000  .data                                           
0     003f0077  .text                                           
0     003f2f59  C$$EXIT                                         
0     003f3059  FS$$CMP                                         
0     003f2da5  FS$$MPY                                         
0     003f2f82  FS$$TOL                                         
0     003f30c7  U$$DIV                                          
0     003f30cc  U$$MOD                                          
0     003f30a8  U$$TOFS                                         
0     003f3084  UL$$TOFS                                        
0     003f2a45  _ADCINT1_ISR                                    
0     003f2a4a  _ADCINT2_ISR                                    
0     003f2ab3  _ADCINT3_ISR                                    
0     003f2ab8  _ADCINT4_ISR                                    
0     003f2abd  _ADCINT5_ISR                                    
0     003f2ac2  _ADCINT6_ISR                                    
0     003f2ac7  _ADCINT7_ISR                                    
0     003f2acc  _ADCINT8_ISR                                    
0     003f2a59  _ADCINT9_ISR                                    
0     003f1814  _AdcChanSelect                                  
0     003f1889  _AdcConversion                                  
0     003f17ed  _AdcOffsetSelfCal                               
1     00007100  _AdcRegs                                        
1     00000b00  _AdcResult                                      
0     003f2c00  _BytePacker16bits                               
0     003f2bda  _BytePacker32bits                               
0     003f2bb7  _BytePackerInplace32bits                        
1     00006400  _Comp1Regs                                      
1     00006420  _Comp2Regs                                      
0     003f2cb1  _ConfigCpuTimer                                 
0     00008426  _CpuTimer0                                      
1     00000c00  _CpuTimer0Regs                                  
0     0000842e  _CpuTimer1                                      
1     00000c08  _CpuTimer1Regs                                  
0     00008436  _CpuTimer2                                      
1     00000c10  _CpuTimer2Regs                                  
1     003f7ff8  _CsmPwl                                         
1     00000ae0  _CsmRegs                                        
0     003f2624  _CsmUnlock                                      
0     003f29f0  _DATALOG_ISR                                    
0     00008583  _DSP28x_usDelay                                 
1     00000880  _DevEmuRegs                                     
0     003f2596  _DisableDog                                     
0     003f2a90  _ECAP1_INT_ISR                                  
1     00006a00  _ECap1Regs                                      
0     003f2ad6  _EMPTY_ISR                                      
0     003f29fa  _EMUINT_ISR                                     
0     003f2a7c  _EPWM1_INT_ISR                                  
0     003f2a68  _EPWM1_TZINT_ISR                                
0     003f2a81  _EPWM2_INT_ISR                                  
0     003f2a6d  _EPWM2_TZINT_ISR                                
0     003f2a86  _EPWM3_INT_ISR                                  
0     003f2a72  _EPWM3_TZINT_ISR                                
0     003f2a8b  _EPWM4_INT_ISR                                  
0     003f2a77  _EPWM4_TZINT_ISR                                
1     00006800  _EPwm1Regs                                      
1     00006840  _EPwm2Regs                                      
1     00006880  _EPwm3Regs                                      
1     000068c0  _EPwm4Regs                                      
1     00000d01  _EmuBMode                                       
1     00000d00  _EmuKey                                         
0     003f2fca  _EnableInterrupts                               
0     003f2694  _ExtOscSel                                      
1     00000a80  _FlashRegs                                      
1     00000d04  _Flash_CPUScaleFactor                           
1     00000d02  _Flash_CallbackPtr                              
0     003f2518  _GPIO_ReadPin                                   
0     003f2465  _GPIO_SetupPinMux                               
0     003f24a3  _GPIO_SetupPinOptions                           
0     003f254d  _GPIO_TogglePin                                 
0     003f252f  _GPIO_WritePin                                  
0     00008281  _GPIO_oneTimeInit                               
1     00006f80  _GpioCtrlRegs                                   
1     00006fc0  _GpioDataRegs                                   
1     00006fe0  _GpioIntRegs                                    
0     003f2a9f  _I2CINT1A_ISR                                   
0     003f2aa4  _I2CINT2A_ISR                                   
1     00007900  _I2caRegs                                       
0     003f2a04  _ILLEGAL_ISR                                    
0     003f29e6  _INT13_ISR                                      
0     003f29eb  _INT14_ISR                                      
0     003f17ad  _InitAdc                                        
0     003f17cb  _InitAdcAio                                     
0     003f2c70  _InitCpuTimers                                  
0     00008568  _InitFlash                                      
0     003f2438  _InitGpio                                       
0     003f25f2  _InitPeripheralClocks                           
0     003f2fab  _InitPieCtrl                                    
0     003f2fd3  _InitPieVectTable                               
0     003f259e  _InitPll                                        
0     003f2572  _InitSysCtrl                                    
0     003f2655  _IntOsc1Sel                                     
0     003f2665  _IntOsc2Sel                                     
0     00008500  _IsrOverrun                                     
0     000084eb  _MW_InterruptDisableLock                        
0     0000850a  _MW_SCI_PTR                                     
0     00008282  _MW_adcInitFlag                                 
0     003f29ff  _NMI_ISR                                        
1     00007060  _NmiIntruptRegs                                 
0     003f2431  _OneTimeGpioInit                                
0     003f2adb  _PIE_RESERVED                                   
1     003d7fff  _PartIdRegs                                     
1     00000ce0  _PieCtrlRegs                                    
1     00000d00  _PieVectTable                                   
0     003f30ee  _PieVectTableInit                               
0     003f29f5  _RTOSINT_ISR                                    
0     003f0077  _RamfuncsLoadEnd                                
0     003f0000  _RamfuncsLoadStart                              
0     00008510  _RamfuncsRunStart                               
0     003f2aa9  _SCIRXINTA_ISR                                  
0     00008510  _SCIRXINT_isr                                   
0     003f2aae  _SCITXINTA_ISR                                  
0     003f2a95  _SPIRXINTA_ISR                                  
0     003f2a9a  _SPITXINTA_ISR                                  
1     00007050  _SciaRegs                                       
0     003f258c  _ServiceDog                                     
0     003f2564  _Set_GPIOPin                                    
1     00007040  _SpiaRegs                                       
1     00007010  _SysCtrlRegs                                    
1     00000985  _SysPwrCtrlRegs                                 
0     003f2a5e  _TINT0_ISR                                      
0     003f2f2e  _TINT0_isr                                      
0     003f2a36  _USER10_ISR                                     
0     003f2a3b  _USER11_ISR                                     
0     003f2a40  _USER12_ISR                                     
0     003f2a09  _USER1_ISR                                      
0     003f2a0e  _USER2_ISR                                      
0     003f2a13  _USER3_ISR                                      
0     003f2a18  _USER4_ISR                                      
0     003f2a1d  _USER5_ISR                                      
0     003f2a22  _USER6_ISR                                      
0     003f2a27  _USER7_ISR                                      
0     003f2a2c  _USER8_ISR                                      
0     003f2a31  _USER9_ISR                                      
0     003f2a63  _WAKEINT_ISR                                    
0     003f2a4f  _XINT1_ISR                                      
0     003f2a54  _XINT2_ISR                                      
0     003f2ad1  _XINT3_ISR                                      
1     00007070  _XIntruptRegs                                   
0     003f2679  _XtalOscSel                                     
1     00000302  __STACK_END                                     
abs   00000300  __STACK_SIZE                                    
0     000084dc  ___TI_cleanup_ptr                               
0     000084de  ___TI_dtors_ptr                                 
0     000084da  ___TI_enable_exit_profile_output                
abs   ffffffff  ___TI_pprof_out_hndl                            
abs   ffffffff  ___TI_prof_data_size                            
abs   ffffffff  ___TI_prof_data_start                           
abs   ffffffff  ___binit__                                      
0     00008000  ___bss__                                        
abs   ffffffff  ___c_args__                                     
0     003f3270  ___cinit__                                      
0     00008000  ___data__                                       
0     00008000  ___edata__                                      
0     00008000  ___end__                                        
0     003f30ed  ___etext__                                      
abs   ffffffff  ___pinit__                                      
0     003f0077  ___text__                                       
0     003f3097  __args_main                                     
0     0000843e  __lock                                          
0     003f30da  __nop                                           
0     003f30d6  __register_lock                                 
0     003f30d2  __register_unlock                               
1     00000002  __stack                                         
0     003f30ec  __system_post_cinit                             
0     003f30ea  __system_pre_init                               
0     000084be  __unlock                                        
0     003f2f59  _abort                                          
0     003f2c49  _addElement                                     
0     003f30b8  _c2000_flash_init                               
0     003f2e59  _c_int00                                        
0     003f2d45  _config_ADC_SOC0                                
0     003f2d75  _config_ADC_SOC1                                
0     003f2ead  _configureTimer0                                
0     003f2ff9  _copy_in                                        
0     0000853f  _deleteElement                                  
0     003f2ed9  _disableTimer0Interrupt                         
0     003f2ed1  _enableTimer0Interrupt                          
0     003f26aa  _enable_interrupts_sci                          
0     003f2f5b  _exit                                           
0     003f2259  _extmodeBackgroundRun                           
0     003f2212  _extmodeEvent                                   
0     003f229f  _extmodeGetEventTriggerEnable                   
0     003f2282  _extmodeGetFinalSimulationTime                  
0     003f2166  _extmodeInit                                    
0     003f215f  _extmodeParseArgs                               
0     003f2261  _extmodeReset                                   
0     003f22b9  _extmodeSetEventTriggerEnable                   
0     003f2297  _extmodeSetFinalSimulationTime                  
0     003f227e  _extmodeSimulationComplete                      
0     003f227a  _extmodeStartRequested                          
0     003f2276  _extmodeStopRequested                           
0     003f21c0  _extmodeWaitForHostRequest                      
0     003f1235  _genericOutputPacketHandler                     
0     003f307c  _globalInterruptDisable                         
0     003f3070  _globalInterruptEnable                          
0     003f2c23  _initQue                                        
0     003f270f  _init_SCI_external_mode                         
0     003f2efa  _init_board                                     
0     003f2c30  _isEmpty                                        
0     003f2c3c  _isFull                                         
0     00008503  _isRateRunning                                  
0     003f2946  _main                                           
0     003f303c  _memcpy                                         
0     003f30e3  _memset                                         
0     00008505  _need2runFlags                                  
0     00008440  _queRx                                          
0     003f2eef  _restoreTimer0Interrupt                         
0     003f2ae0  _rsvd_ISR                                       
0     003f26d7  _rtIOStreamClose                                
0     003f26b9  _rtIOStreamOpen                                 
0     003f26f9  _rtIOStreamRecv                                 
0     003f26dd  _rtIOStreamSend                                 
0     003f26eb  _rtIOStreamSend8Bits                            
0     003f28e6  _rt_OneStep                                     
0     0000828e  _rul_data_acquisition_B                         
0     003f326e  _rul_data_acquisition_M                         
0     000084e0  _rul_data_acquisition_P                         
0     003f27d7  _rul_data_acquisition_SetEventsForThisBaseStep  
0     003f2862  _rul_data_acquisition_initialize                
0     003f27f7  _rul_data_acquisition_step0                     
0     003f2832  _rul_data_acquisition_step1                     
0     003f28e5  _rul_data_acquisition_terminate                 
0     00008502  _runModel                                       
0     003f2778  _sci_rcv_external_mode                          
0     003f27b6  _sci_xmit_external_mode                         
0     00008501  _stopRequested                                  
0     003f2baa  _xcpCalibrationGetPacketLookup                  
0     003f2ba5  _xcpCalibrationInit                             
0     003f2bb6  _xcpCalibrationReset                            
0     003f2bae  _xcpCalibrationSetPacketLookup                  
0     00008485  _xcpClassicTriggerArmRequest                    
0     00008486  _xcpClassicTriggerCancelRequest                 
0     00008498  _xcpClassicTriggerDelay                         
0     00008484  _xcpClassicTriggerDirection                     
0     00008494  _xcpClassicTriggerDuration                      
0     00008482  _xcpClassicTriggerEventId                       
0     00008496  _xcpClassicTriggerHoldOff                       
0     00008492  _xcpClassicTriggerLevel                         
0     00008488  _xcpClassicTriggerMode                          
0     00008490  _xcpClassicTriggerSignalAddress                 
0     00008483  _xcpClassicTriggerSignalAddressExtension        
0     00008487  _xcpClassicTriggerSource                        
0     00008489  _xcpClassicTriggerStatus                        
0     000084f0  _xcpCurrentSimulationTimeInTicks                
0     003f0a7a  _xcpDaqEvent                                    
0     003f0acd  _xcpDaqEventsFlush                              
0     003f0c8b  _xcpDaqExtendedInit                             
0     003f0c8c  _xcpDaqExtendedReset                            
0     003f0c6a  _xcpDaqGetCustomPoolMemoryManager               
0     003f08e5  _xcpDaqGetPacketLookup                          
0     003f08d5  _xcpDaqInit                                     
0     003f0ba0  _xcpDaqLock                                     
0     003f0c4b  _xcpDaqReset                                    
0     003f0c54  _xcpDaqSetCustomPoolMemoryManager               
0     003f08e9  _xcpDaqSetPacketLookup                          
0     003f0ba9  _xcpDaqUnlock                                   
0     003f2416  _xcpDrvClose                                    
0     003f22e7  _xcpDrvIoctl                                    
0     003f22cd  _xcpDrvOpen                                     
0     003f2367  _xcpDrvRecv                                     
0     003f23d3  _xcpDrvRecvUnknownSize                          
0     003f22fb  _xcpDrvSend                                     
0     0000841a  _xcpDummyDoubleVariable                         
0     003f13aa  _xcpEvent                                       
0     003f13c0  _xcpEventExternalTimestamp                      
0     003f13d2  _xcpEventNotificationReq                        
0     003f1f51  _xcpExtModeClassicTriggerEnabled                
0     003f1fb3  _xcpExtModeClassicTriggerForceEnableStatusUpdate
0     003f1f42  _xcpExtModeClassicTriggerInit                   
0     003f1f91  _xcpExtModeClassicTriggerReset                  
0     003f2091  _xcpExtModeGetSimulationTime                    
0     003f2073  _xcpExtModeGetUpdatedTimestamp                  
0     003f2098  _xcpExtModeInit                                 
0     003f301d  _xcpExtModeParseArgs                            
0     003f2119  _xcpExtModeReset                                
0     003f20c0  _xcpExtModeRunBackground                        
0     003f206c  _xcpExtModeUpdateTime                           
0     00008418  _xcpExtmodeFinalSimulationTime                  
0     0000840b  _xcpExtmodeSimulationComplete                   
0     003f2cfb  _xcpFifoDequeue                                 
0     003f2d36  _xcpFifoEmpty                                   
0     003f2cec  _xcpFifoEnqueue                                 
0     003f2d0f  _xcpFifoEnqueueHead                             
0     003f2ce3  _xcpFifoInit                                    
0     003f2d3f  _xcpFifoReset                                   
0     003f2d1f  _xcpFifoSpliceHead                              
0     003f12cb  _xcpFindPacket                                  
0     003f1d44  _xcpFrameCreateMsg                              
0     003f1d72  _xcpFrameExtractPacket                          
0     003f1de0  _xcpFrameHeaderSize                             
0     003f1c23  _xcpFrameInit                                   
0     003f1de8  _xcpFrameMaxCtoSize                             
0     003f1de4  _xcpFrameMaxDtoSize                             
0     003f1cbb  _xcpFrameMsgRecv                                
0     003f1c3d  _xcpFrameMsgSend                                
0     003f1df8  _xcpFrameReset                                  
0     003f1dea  _xcpFrameRestart                                
0     003f1df1  _xcpFrameSetCtoReservedMemPoolId                
0     003f1de2  _xcpFrameTailSize                               
0     003f14a4  _xcpGetCustomPoolMemoryManager                  
0     003f302f  _xcpGetInitParameters                           
0     003f1488  _xcpGetStatus                                   
0     003f207a  _xcpGetTimestamp                                
0     003f12ef  _xcpInit                                        
0     003f0d83  _xcpMemAlloc                                    
0     003f1058  _xcpMemAllocFromPool                            
0     003f0fce  _xcpMemCustomPoolCreate                         
0     003f1026  _xcpMemCustomPoolDestroy                        
0     003f0dee  _xcpMemFree                                     
0     003f0cbe  _xcpMemInit                                     
0     003f0e7f  _xcpMemReservedPoolCreate                       
0     003f0f46  _xcpMemReservedPoolDestroy                      
0     003f10f5  _xcpMemReset                                    
0     0000840e  _xcpModelChecksum0                              
0     00008410  _xcpModelChecksum1                              
0     00008412  _xcpModelChecksum2                              
0     00008414  _xcpModelChecksum3                              
0     00008416  _xcpModelIntegerCode                            
0     00008408  _xcpModelStartRequest                           
0     0000840a  _xcpModelStatus                                 
0     00008409  _xcpModelStopRequest                            
0     003f14b7  _xcpPackedModeEventReset                        
0     003f14b0  _xcpPackedModeEventsFlush                       
0     003f142d  _xcpRemoteServiceReq                            
0     003f148c  _xcpReset                                       
0     003f0bad  _xcpResetDaqListStatus                          
0     003f1222  _xcpResourceProtectionClearMask                 
0     003f1218  _xcpResourceProtectionSetMask                   
0     003f120d  _xcpResourceProtectionStatusGet                 
0     003f1211  _xcpResourceProtectionStatusSet                 
0     003f1315  _xcpRun                                         
0     003f122a  _xcpSessionConfigurationIdGet                   
0     003f122e  _xcpSessionConfigurationIdSet                   
0     003f1205  _xcpSessionStatusClearMask                      
0     003f11f0  _xcpSessionStatusGet                            
0     003f11f4  _xcpSessionStatusSet                            
0     003f11fb  _xcpSessionStatusSetMask                        
0     003f149b  _xcpSetCustomPoolMemoryManager                  
0     003f2dff  _xcpSortArray                                   
0     003f1bfc  _xcpStandardExtendedInit                        
0     003f1bfd  _xcpStandardExtendedReset                       
0     003f1bd1  _xcpStandardGetAddressFromMta                   
0     003f1be7  _xcpStandardGetMta                              
0     003f1bbf  _xcpStandardGetPacketLookup                     
0     003f1bf3  _xcpStandardIncrementMta                        
0     003f1bb8  _xcpStandardInit                                
0     003f1bcb  _xcpStandardReset                               
0     003f1bd5  _xcpStandardSetMta                              
0     003f1bc3  _xcpStandardSetPacketLookup                     
0     003f11e5  _xcpStatusGet                                   
0     003f11e9  _xcpStatusSet                                   
0     003f1c08  _xcpSxiChecksum                                 
0     003f1769  _xcpTransportCtoReservedMemPoolId               
0     003f3022  _xcpTransportGetInitParameters                  
0     003f1529  _xcpTransportInit                               
0     003f174c  _xcpTransportMaxCtoSize                         
0     003f1749  _xcpTransportMaxDtoSize                         
0     003f1720  _xcpTransportMsgBufferSize                      
0     003f1714  _xcpTransportPacketOffset                       
0     003f176d  _xcpTransportReset                              
0     003f174f  _xcpTransportRestart                            
0     003f175d  _xcpTransportResynch                            
0     003f1676  _xcpTransportRx                                 
0     003f16ad  _xcpTransportRxPacketGet                        
0     003f15fb  _xcpTransportTx                                 
0     003f158f  _xcpTransportTxPacketSet                        
0     003f1583  _xcpTransportTxReady                            
0     003f1589  _xcpTransportTxTrigger                          
0     003f1fd1  _xcp_void_printf                                
abs   ffffffff  binit                                           
0     003f3270  cinit                                           
0     003f7ff6  code_start                                      
0     00008000  edata                                           
0     00008000  end                                             
0     003f30ed  etext                                           
abs   ffffffff  pinit                                           


GLOBAL SYMBOLS: SORTED BY Symbol Address 

page  address   name                                            
----  -------   ----                                            
0     00008000  .bss                                            
0     00008000  .data                                           
0     00008000  ___bss__                                        
0     00008000  ___data__                                       
0     00008000  ___edata__                                      
0     00008000  ___end__                                        
0     00008000  edata                                           
0     00008000  end                                             
0     00008281  _GPIO_oneTimeInit                               
0     00008282  _MW_adcInitFlag                                 
0     0000828e  _rul_data_acquisition_B                         
0     00008408  _xcpModelStartRequest                           
0     00008409  _xcpModelStopRequest                            
0     0000840a  _xcpModelStatus                                 
0     0000840b  _xcpExtmodeSimulationComplete                   
0     0000840e  _xcpModelChecksum0                              
0     00008410  _xcpModelChecksum1                              
0     00008412  _xcpModelChecksum2                              
0     00008414  _xcpModelChecksum3                              
0     00008416  _xcpModelIntegerCode                            
0     00008418  _xcpExtmodeFinalSimulationTime                  
0     0000841a  _xcpDummyDoubleVariable                         
0     00008426  _CpuTimer0                                      
0     0000842e  _CpuTimer1                                      
0     00008436  _CpuTimer2                                      
0     0000843e  __lock                                          
0     00008440  _queRx                                          
0     00008482  _xcpClassicTriggerEventId                       
0     00008483  _xcpClassicTriggerSignalAddressExtension        
0     00008484  _xcpClassicTriggerDirection                     
0     00008485  _xcpClassicTriggerArmRequest                    
0     00008486  _xcpClassicTriggerCancelRequest                 
0     00008487  _xcpClassicTriggerSource                        
0     00008488  _xcpClassicTriggerMode                          
0     00008489  _xcpClassicTriggerStatus                        
0     00008490  _xcpClassicTriggerSignalAddress                 
0     00008492  _xcpClassicTriggerLevel                         
0     00008494  _xcpClassicTriggerDuration                      
0     00008496  _xcpClassicTriggerHoldOff                       
0     00008498  _xcpClassicTriggerDelay                         
0     000084be  __unlock                                        
0     000084da  ___TI_enable_exit_profile_output                
0     000084dc  ___TI_cleanup_ptr                               
0     000084de  ___TI_dtors_ptr                                 
0     000084e0  _rul_data_acquisition_P                         
0     000084eb  _MW_InterruptDisableLock                        
0     000084f0  _xcpCurrentSimulationTimeInTicks                
0     00008500  _IsrOverrun                                     
0     00008501  _stopRequested                                  
0     00008502  _runModel                                       
0     00008503  _isRateRunning                                  
0     00008505  _need2runFlags                                  
0     0000850a  _MW_SCI_PTR                                     
0     00008510  _RamfuncsRunStart                               
0     00008510  _SCIRXINT_isr                                   
0     0000853f  _deleteElement                                  
0     00008568  _InitFlash                                      
0     00008583  _DSP28x_usDelay                                 
0     003f0000  _RamfuncsLoadStart                              
0     003f0077  .text                                           
0     003f0077  _RamfuncsLoadEnd                                
0     003f0077  ___text__                                       
0     003f08d5  _xcpDaqInit                                     
0     003f08e5  _xcpDaqGetPacketLookup                          
0     003f08e9  _xcpDaqSetPacketLookup                          
0     003f0a7a  _xcpDaqEvent                                    
0     003f0acd  _xcpDaqEventsFlush                              
0     003f0ba0  _xcpDaqLock                                     
0     003f0ba9  _xcpDaqUnlock                                   
0     003f0bad  _xcpResetDaqListStatus                          
0     003f0c4b  _xcpDaqReset                                    
0     003f0c54  _xcpDaqSetCustomPoolMemoryManager               
0     003f0c6a  _xcpDaqGetCustomPoolMemoryManager               
0     003f0c8b  _xcpDaqExtendedInit                             
0     003f0c8c  _xcpDaqExtendedReset                            
0     003f0cbe  _xcpMemInit                                     
0     003f0d83  _xcpMemAlloc                                    
0     003f0dee  _xcpMemFree                                     
0     003f0e7f  _xcpMemReservedPoolCreate                       
0     003f0f46  _xcpMemReservedPoolDestroy                      
0     003f0fce  _xcpMemCustomPoolCreate                         
0     003f1026  _xcpMemCustomPoolDestroy                        
0     003f1058  _xcpMemAllocFromPool                            
0     003f10f5  _xcpMemReset                                    
0     003f11e5  _xcpStatusGet                                   
0     003f11e9  _xcpStatusSet                                   
0     003f11f0  _xcpSessionStatusGet                            
0     003f11f4  _xcpSessionStatusSet                            
0     003f11fb  _xcpSessionStatusSetMask                        
0     003f1205  _xcpSessionStatusClearMask                      
0     003f120d  _xcpResourceProtectionStatusGet                 
0     003f1211  _xcpResourceProtectionStatusSet                 
0     003f1218  _xcpResourceProtectionSetMask                   
0     003f1222  _xcpResourceProtectionClearMask                 
0     003f122a  _xcpSessionConfigurationIdGet                   
0     003f122e  _xcpSessionConfigurationIdSet                   
0     003f1235  _genericOutputPacketHandler                     
0     003f12cb  _xcpFindPacket                                  
0     003f12ef  _xcpInit                                        
0     003f1315  _xcpRun                                         
0     003f13aa  _xcpEvent                                       
0     003f13c0  _xcpEventExternalTimestamp                      
0     003f13d2  _xcpEventNotificationReq                        
0     003f142d  _xcpRemoteServiceReq                            
0     003f1488  _xcpGetStatus                                   
0     003f148c  _xcpReset                                       
0     003f149b  _xcpSetCustomPoolMemoryManager                  
0     003f14a4  _xcpGetCustomPoolMemoryManager                  
0     003f14b0  _xcpPackedModeEventsFlush                       
0     003f14b7  _xcpPackedModeEventReset                        
0     003f1529  _xcpTransportInit                               
0     003f1583  _xcpTransportTxReady                            
0     003f1589  _xcpTransportTxTrigger                          
0     003f158f  _xcpTransportTxPacketSet                        
0     003f15fb  _xcpTransportTx                                 
0     003f1676  _xcpTransportRx                                 
0     003f16ad  _xcpTransportRxPacketGet                        
0     003f1714  _xcpTransportPacketOffset                       
0     003f1720  _xcpTransportMsgBufferSize                      
0     003f1749  _xcpTransportMaxDtoSize                         
0     003f174c  _xcpTransportMaxCtoSize                         
0     003f174f  _xcpTransportRestart                            
0     003f175d  _xcpTransportResynch                            
0     003f1769  _xcpTransportCtoReservedMemPoolId               
0     003f176d  _xcpTransportReset                              
0     003f17ad  _InitAdc                                        
0     003f17cb  _InitAdcAio                                     
0     003f17ed  _AdcOffsetSelfCal                               
0     003f1814  _AdcChanSelect                                  
0     003f1889  _AdcConversion                                  
0     003f1bb8  _xcpStandardInit                                
0     003f1bbf  _xcpStandardGetPacketLookup                     
0     003f1bc3  _xcpStandardSetPacketLookup                     
0     003f1bcb  _xcpStandardReset                               
0     003f1bd1  _xcpStandardGetAddressFromMta                   
0     003f1bd5  _xcpStandardSetMta                              
0     003f1be7  _xcpStandardGetMta                              
0     003f1bf3  _xcpStandardIncrementMta                        
0     003f1bfc  _xcpStandardExtendedInit                        
0     003f1bfd  _xcpStandardExtendedReset                       
0     003f1c08  _xcpSxiChecksum                                 
0     003f1c23  _xcpFrameInit                                   
0     003f1c3d  _xcpFrameMsgSend                                
0     003f1cbb  _xcpFrameMsgRecv                                
0     003f1d44  _xcpFrameCreateMsg                              
0     003f1d72  _xcpFrameExtractPacket                          
0     003f1de0  _xcpFrameHeaderSize                             
0     003f1de2  _xcpFrameTailSize                               
0     003f1de4  _xcpFrameMaxDtoSize                             
0     003f1de8  _xcpFrameMaxCtoSize                             
0     003f1dea  _xcpFrameRestart                                
0     003f1df1  _xcpFrameSetCtoReservedMemPoolId                
0     003f1df8  _xcpFrameReset                                  
0     003f1f42  _xcpExtModeClassicTriggerInit                   
0     003f1f51  _xcpExtModeClassicTriggerEnabled                
0     003f1f91  _xcpExtModeClassicTriggerReset                  
0     003f1fb3  _xcpExtModeClassicTriggerForceEnableStatusUpdate
0     003f1fd1  _xcp_void_printf                                
0     003f206c  _xcpExtModeUpdateTime                           
0     003f2073  _xcpExtModeGetUpdatedTimestamp                  
0     003f207a  _xcpGetTimestamp                                
0     003f2091  _xcpExtModeGetSimulationTime                    
0     003f2098  _xcpExtModeInit                                 
0     003f20c0  _xcpExtModeRunBackground                        
0     003f2119  _xcpExtModeReset                                
0     003f215f  _extmodeParseArgs                               
0     003f2166  _extmodeInit                                    
0     003f21c0  _extmodeWaitForHostRequest                      
0     003f2212  _extmodeEvent                                   
0     003f2259  _extmodeBackgroundRun                           
0     003f2261  _extmodeReset                                   
0     003f2276  _extmodeStopRequested                           
0     003f227a  _extmodeStartRequested                          
0     003f227e  _extmodeSimulationComplete                      
0     003f2282  _extmodeGetFinalSimulationTime                  
0     003f2297  _extmodeSetFinalSimulationTime                  
0     003f229f  _extmodeGetEventTriggerEnable                   
0     003f22b9  _extmodeSetEventTriggerEnable                   
0     003f22cd  _xcpDrvOpen                                     
0     003f22e7  _xcpDrvIoctl                                    
0     003f22fb  _xcpDrvSend                                     
0     003f2367  _xcpDrvRecv                                     
0     003f23d3  _xcpDrvRecvUnknownSize                          
0     003f2416  _xcpDrvClose                                    
0     003f2431  _OneTimeGpioInit                                
0     003f2438  _InitGpio                                       
0     003f2465  _GPIO_SetupPinMux                               
0     003f24a3  _GPIO_SetupPinOptions                           
0     003f2518  _GPIO_ReadPin                                   
0     003f252f  _GPIO_WritePin                                  
0     003f254d  _GPIO_TogglePin                                 
0     003f2564  _Set_GPIOPin                                    
0     003f2572  _InitSysCtrl                                    
0     003f258c  _ServiceDog                                     
0     003f2596  _DisableDog                                     
0     003f259e  _InitPll                                        
0     003f25f2  _InitPeripheralClocks                           
0     003f2624  _CsmUnlock                                      
0     003f2655  _IntOsc1Sel                                     
0     003f2665  _IntOsc2Sel                                     
0     003f2679  _XtalOscSel                                     
0     003f2694  _ExtOscSel                                      
0     003f26aa  _enable_interrupts_sci                          
0     003f26b9  _rtIOStreamOpen                                 
0     003f26d7  _rtIOStreamClose                                
0     003f26dd  _rtIOStreamSend                                 
0     003f26eb  _rtIOStreamSend8Bits                            
0     003f26f9  _rtIOStreamRecv                                 
0     003f270f  _init_SCI_external_mode                         
0     003f2778  _sci_rcv_external_mode                          
0     003f27b6  _sci_xmit_external_mode                         
0     003f27d7  _rul_data_acquisition_SetEventsForThisBaseStep  
0     003f27f7  _rul_data_acquisition_step0                     
0     003f2832  _rul_data_acquisition_step1                     
0     003f2862  _rul_data_acquisition_initialize                
0     003f28e5  _rul_data_acquisition_terminate                 
0     003f28e6  _rt_OneStep                                     
0     003f2946  _main                                           
0     003f29e6  _INT13_ISR                                      
0     003f29eb  _INT14_ISR                                      
0     003f29f0  _DATALOG_ISR                                    
0     003f29f5  _RTOSINT_ISR                                    
0     003f29fa  _EMUINT_ISR                                     
0     003f29ff  _NMI_ISR                                        
0     003f2a04  _ILLEGAL_ISR                                    
0     003f2a09  _USER1_ISR                                      
0     003f2a0e  _USER2_ISR                                      
0     003f2a13  _USER3_ISR                                      
0     003f2a18  _USER4_ISR                                      
0     003f2a1d  _USER5_ISR                                      
0     003f2a22  _USER6_ISR                                      
0     003f2a27  _USER7_ISR                                      
0     003f2a2c  _USER8_ISR                                      
0     003f2a31  _USER9_ISR                                      
0     003f2a36  _USER10_ISR                                     
0     003f2a3b  _USER11_ISR                                     
0     003f2a40  _USER12_ISR                                     
0     003f2a45  _ADCINT1_ISR                                    
0     003f2a4a  _ADCINT2_ISR                                    
0     003f2a4f  _XINT1_ISR                                      
0     003f2a54  _XINT2_ISR                                      
0     003f2a59  _ADCINT9_ISR                                    
0     003f2a5e  _TINT0_ISR                                      
0     003f2a63  _WAKEINT_ISR                                    
0     003f2a68  _EPWM1_TZINT_ISR                                
0     003f2a6d  _EPWM2_TZINT_ISR                                
0     003f2a72  _EPWM3_TZINT_ISR                                
0     003f2a77  _EPWM4_TZINT_ISR                                
0     003f2a7c  _EPWM1_INT_ISR                                  
0     003f2a81  _EPWM2_INT_ISR                                  
0     003f2a86  _EPWM3_INT_ISR                                  
0     003f2a8b  _EPWM4_INT_ISR                                  
0     003f2a90  _ECAP1_INT_ISR                                  
0     003f2a95  _SPIRXINTA_ISR                                  
0     003f2a9a  _SPITXINTA_ISR                                  
0     003f2a9f  _I2CINT1A_ISR                                   
0     003f2aa4  _I2CINT2A_ISR                                   
0     003f2aa9  _SCIRXINTA_ISR                                  
0     003f2aae  _SCITXINTA_ISR                                  
0     003f2ab3  _ADCINT3_ISR                                    
0     003f2ab8  _ADCINT4_ISR                                    
0     003f2abd  _ADCINT5_ISR                                    
0     003f2ac2  _ADCINT6_ISR                                    
0     003f2ac7  _ADCINT7_ISR                                    
0     003f2acc  _ADCINT8_ISR                                    
0     003f2ad1  _XINT3_ISR                                      
0     003f2ad6  _EMPTY_ISR                                      
0     003f2adb  _PIE_RESERVED                                   
0     003f2ae0  _rsvd_ISR                                       
0     003f2ba5  _xcpCalibrationInit                             
0     003f2baa  _xcpCalibrationGetPacketLookup                  
0     003f2bae  _xcpCalibrationSetPacketLookup                  
0     003f2bb6  _xcpCalibrationReset                            
0     003f2bb7  _BytePackerInplace32bits                        
0     003f2bda  _BytePacker32bits                               
0     003f2c00  _BytePacker16bits                               
0     003f2c23  _initQue                                        
0     003f2c30  _isEmpty                                        
0     003f2c3c  _isFull                                         
0     003f2c49  _addElement                                     
0     003f2c70  _InitCpuTimers                                  
0     003f2cb1  _ConfigCpuTimer                                 
0     003f2ce3  _xcpFifoInit                                    
0     003f2cec  _xcpFifoEnqueue                                 
0     003f2cfb  _xcpFifoDequeue                                 
0     003f2d0f  _xcpFifoEnqueueHead                             
0     003f2d1f  _xcpFifoSpliceHead                              
0     003f2d36  _xcpFifoEmpty                                   
0     003f2d3f  _xcpFifoReset                                   
0     003f2d45  _config_ADC_SOC0                                
0     003f2d75  _config_ADC_SOC1                                
0     003f2da5  FS$$MPY                                         
0     003f2dff  _xcpSortArray                                   
0     003f2e59  _c_int00                                        
0     003f2ead  _configureTimer0                                
0     003f2ed1  _enableTimer0Interrupt                          
0     003f2ed9  _disableTimer0Interrupt                         
0     003f2eef  _restoreTimer0Interrupt                         
0     003f2efa  _init_board                                     
0     003f2f2e  _TINT0_isr                                      
0     003f2f59  C$$EXIT                                         
0     003f2f59  _abort                                          
0     003f2f5b  _exit                                           
0     003f2f82  FS$$TOL                                         
0     003f2fab  _InitPieCtrl                                    
0     003f2fca  _EnableInterrupts                               
0     003f2fd3  _InitPieVectTable                               
0     003f2ff9  _copy_in                                        
0     003f301d  _xcpExtModeParseArgs                            
0     003f3022  _xcpTransportGetInitParameters                  
0     003f302f  _xcpGetInitParameters                           
0     003f303c  _memcpy                                         
0     003f3059  FS$$CMP                                         
0     003f3070  _globalInterruptEnable                          
0     003f307c  _globalInterruptDisable                         
0     003f3084  UL$$TOFS                                        
0     003f3097  __args_main                                     
0     003f30a8  U$$TOFS                                         
0     003f30b8  _c2000_flash_init                               
0     003f30c7  U$$DIV                                          
0     003f30cc  U$$MOD                                          
0     003f30d2  __register_unlock                               
0     003f30d6  __register_lock                                 
0     003f30da  __nop                                           
0     003f30e3  _memset                                         
0     003f30ea  __system_pre_init                               
0     003f30ec  __system_post_cinit                             
0     003f30ed  ___etext__                                      
0     003f30ed  etext                                           
0     003f30ee  _PieVectTableInit                               
0     003f326e  _rul_data_acquisition_M                         
0     003f3270  ___cinit__                                      
0     003f3270  cinit                                           
0     003f7ff6  code_start                                      
1     00000002  __stack                                         
1     00000302  __STACK_END                                     
1     00000880  _DevEmuRegs                                     
1     00000985  _SysPwrCtrlRegs                                 
1     00000a80  _FlashRegs                                      
1     00000ae0  _CsmRegs                                        
1     00000b00  _AdcResult                                      
1     00000c00  _CpuTimer0Regs                                  
1     00000c08  _CpuTimer1Regs                                  
1     00000c10  _CpuTimer2Regs                                  
1     00000ce0  _PieCtrlRegs                                    
1     00000d00  _EmuKey                                         
1     00000d00  _PieVectTable                                   
1     00000d01  _EmuBMode                                       
1     00000d02  _Flash_CallbackPtr                              
1     00000d04  _Flash_CPUScaleFactor                           
1     00006400  _Comp1Regs                                      
1     00006420  _Comp2Regs                                      
1     00006800  _EPwm1Regs                                      
1     00006840  _EPwm2Regs                                      
1     00006880  _EPwm3Regs                                      
1     000068c0  _EPwm4Regs                                      
1     00006a00  _ECap1Regs                                      
1     00006f80  _GpioCtrlRegs                                   
1     00006fc0  _GpioDataRegs                                   
1     00006fe0  _GpioIntRegs                                    
1     00007010  _SysCtrlRegs                                    
1     00007040  _SpiaRegs                                       
1     00007050  _SciaRegs                                       
1     00007060  _NmiIntruptRegs                                 
1     00007070  _XIntruptRegs                                   
1     00007100  _AdcRegs                                        
1     00007900  _I2caRegs                                       
1     003d7fff  _PartIdRegs                                     
1     003f7ff8  _CsmPwl                                         
abs   00000300  __STACK_SIZE                                    
abs   ffffffff  ___TI_pprof_out_hndl                            
abs   ffffffff  ___TI_prof_data_size                            
abs   ffffffff  ___TI_prof_data_start                           
abs   ffffffff  ___binit__                                      
abs   ffffffff  ___c_args__                                     
abs   ffffffff  ___pinit__                                      
abs   ffffffff  binit                                           
abs   ffffffff  pinit                                           

[378 symbols]
