******************************************************************************
             TMS320C2000 Linker PC v22.6.0                     
******************************************************************************
>> Linked Wed Jun  5 14:42:10 2024

OUTPUT FILE NAME:   <../rul_data_acquisition.out>
ENTRY POINT SYMBOL: "_c_int00"  address: 003f2e3b


MEMORY CONFIGURATION

         name            origin    length      used     unused   attr    fill
----------------------  --------  ---------  --------  --------  ----  --------
PAGE 0:
  BEGINRAM              00000000   00000002  00000000  00000002  RWIX
  PRAML0                00008000   00001000  000005b6  00000a4a  RWIX
  OTP                   003d7800   00000400  00000000  00000400  RWIX
  FLASH                 003f0000   00007ff6  000033c1  00004c35  RWIX
  BEGINFLASH            003f7ff6   00000002  00000002  00000000  RWIX
  CSM_PWL               003f7ff8   00000008  00000000  00000008  RWIX
  IQTABLES              003fe000   00000b50  00000000  00000b50  RWIX
  IQTABLES2             003feb50   0000008c  00000000  0000008c  RWIX
  IQTABLES3             003febdc   000000aa  00000000  000000aa  RWIX
  BOOTROM               003ff27c   00000d44  00000000  00000d44  RWIX
  RESET                 003fffc0   00000002  00000000  00000002  RWIX
  VECTORS               003fffc2   0000003e  00000000  0000003e  RWIX

PAGE 1:
  RAMM0M1               00000002   000007fe  00000300  000004fe  RWIX
  DEV_EMU               00000880   00000105  00000004  00000101  RWIX
  SYS_PWR_CTL           00000985   00000003  00000003  00000000  RWIX
  FLASH_REGS            00000a80   00000060  00000008  00000058  RWIX
  CSM                   00000ae0   00000010  00000010  00000000  RWIX
  ADC_RESULT            00000b00   00000020  00000020  00000000  RWIX
  CPU_TIMER0            00000c00   00000008  00000008  00000000  RWIX
  CPU_TIMER1            00000c08   00000008  00000008  00000000  RWIX
  CPU_TIMER2            00000c10   00000008  00000008  00000000  RWIX
  PIE_CTRL              00000ce0   00000020  0000001a  00000006  RWIX
  PIE_VECT              00000d00   00000100  00000100  00000000  RWIX
  COMP1                 00006400   00000020  00000011  0000000f  RWIX
  COMP2                 00006420   00000020  00000011  0000000f  RWIX
  EPWM1                 00006800   00000040  00000040  00000000  RWIX
  EPWM2                 00006840   00000040  00000040  00000000  RWIX
  EPWM3                 00006880   00000040  00000040  00000000  RWIX
  EPWM4                 000068c0   00000040  00000040  00000000  RWIX
  ECAP1                 00006a00   00000020  00000020  00000000  RWIX
  GPIOCTRL              00006f80   00000040  00000040  00000000  RWIX
  GPIODAT               00006fc0   00000020  00000020  00000000  RWIX
  GPIOINT               00006fe0   00000020  0000000a  00000016  RWIX
  SYSTEM                00007010   00000020  0000001f  00000001  RWIX
  SPIA                  00007040   00000010  00000010  00000000  RWIX
  SCIA                  00007050   00000010  00000010  00000000  RWIX
  NMIINTRUPT            00007060   00000010  00000010  00000000  RWIX
  XINTRUPT              00007070   00000010  00000010  00000000  RWIX
  ADC                   00007100   00000080  00000051  0000002f  RWIX
  I2CA                  00007900   00000040  00000022  0000001e  RWIX
  PARTID                003d7fff   00000001  00000001  00000000  RWIX
  CSM_PWL               003f7ff8   00000008  00000008  00000000  RWIX


SECTION ALLOCATION MAP

 output                                  attributes/
section   page    origin      length       input sections
--------  ----  ----------  ----------   ----------------
.bss       0    00008000    00000000     UNINITIALIZED

.ebss      0    00008000    0000053f     UNINITIALIZED
                  00008000    00000326     xcp_mem_default.obj (.ebss:_xcpMemReservedPoolsChunk)
                  00008326    00000018     f2802x_cputimers.obj (.ebss)
                  0000833e    00000002     rts2800_ml.lib : _lock.c.obj (.ebss:__lock)
                  00008340    0000009f     xcp_mem_default.obj (.ebss:_xcpMemMainChunk)
                  000083df    00000001     MW_c28xGPIO.obj (.ebss)
                  000083e0    0000001e     xcp_ext_common.obj (.ebss)
                  000083fe    00000002     rts2800_ml.lib : _lock.c.obj (.ebss:__unlock)
                  00008400    00000042     datamodify_xcp.obj (.ebss)
                  00008442    0000003c     xcp_mem_default.obj (.ebss:_xcpMemPoolDescriptors)
                  0000847e    00000002     rul_data_acquisition.obj (.ebss:_systemRan$3)
                  00008480    00000030     rul_data_acquisition.obj (.ebss)
                  000084b0    00000008     xcp.obj (.ebss:_groupPacketLookup)
                  000084b8    00000008     xcp_transport.obj (.ebss:_txFifo)
                  000084c0    0000001c     xcp_ext_classic_trigger.obj (.ebss)
                  000084dc    00000018     xcp_daq.obj (.ebss)
                  000084f4    00000008     xcp_standard.obj (.ebss)
                  000084fc    00000004     xcp_transport.obj (.ebss:_rxFifo)
                  00008500    00000006     xcp_mem_default.obj (.ebss:_xcpMemMainBlockSizes)
                  00008506    00000006     xcp_mem_default.obj (.ebss:_xcpMemMainBlocksNumber)
                  0000850c    00000006     rts2800_ml.lib : exit.c.obj (.ebss)
                  00008512    00000005     xcp.obj (.ebss)
                  00008517    00000005     xcp_frame_serial.obj (.ebss)
                  0000851c    00000004     xcp_ext_common.obj (.ebss:_xcpCurrentSimulationTimeInTicks)
                  00008520    00000004     xcp_ext_mode.obj (.ebss:_xcpCustomTriggerFunction)
                  00008524    00000004     xcp_mem_default.obj (.ebss:_xcpMemCustomPoolDescriptors)
                  00008528    00000004     ert_main.obj (.ebss)
                  0000852c    00000004     rul_data_acquisition_data.obj (.ebss)
                  00008530    00000004     xcp_mem_default.obj (.ebss)
                  00008534    00000004     xcp_transport.obj (.ebss)
                  00008538    00000002     rtiostream_serial_c28x_ext_xcp.obj (.ebss)
                  0000853a    00000002     xcp_calibration.obj (.ebss)
                  0000853c    00000002     xcp_drv_rtiostream.obj (.ebss)
                  0000853e    00000001     MW_c28xGlobalInterrupts.obj (.ebss)

DevEmuRegsFile 
*          1    00000880    00000004     UNINITIALIZED
                  00000880    00000004     F2802x_GlobalVariableDefs.obj (DevEmuRegsFile)

SysPwrCtrlRegsFile 
*          1    00000985    00000003     UNINITIALIZED
                  00000985    00000003     F2802x_GlobalVariableDefs.obj (SysPwrCtrlRegsFile)

FlashRegsFile 
*          1    00000a80    00000008     UNINITIALIZED
                  00000a80    00000008     F2802x_GlobalVariableDefs.obj (FlashRegsFile)

CsmRegsFile 
*          1    00000ae0    00000010     UNINITIALIZED
                  00000ae0    00000010     F2802x_GlobalVariableDefs.obj (CsmRegsFile)

AdcResultFile 
*          1    00000b00    00000020     UNINITIALIZED
                  00000b00    00000020     F2802x_GlobalVariableDefs.obj (AdcResultFile)

CpuTimer0RegsFile 
*          1    00000c00    00000008     UNINITIALIZED
                  00000c00    00000008     F2802x_GlobalVariableDefs.obj (CpuTimer0RegsFile)

CpuTimer1RegsFile 
*          1    00000c08    00000008     UNINITIALIZED
                  00000c08    00000008     F2802x_GlobalVariableDefs.obj (CpuTimer1RegsFile)

CpuTimer2RegsFile 
*          1    00000c10    00000008     UNINITIALIZED
                  00000c10    00000008     F2802x_GlobalVariableDefs.obj (CpuTimer2RegsFile)

PieCtrlRegsFile 
*          1    00000ce0    0000001a     UNINITIALIZED
                  00000ce0    0000001a     F2802x_GlobalVariableDefs.obj (PieCtrlRegsFile)

PieVectTableFile 
*          1    00000d00    00000100     UNINITIALIZED
                  00000d00    00000100     F2802x_GlobalVariableDefs.obj (PieVectTableFile)

EmuKeyVar 
*          1    00000d00    00000001     UNINITIALIZED
                  00000d00    00000001     F2802x_GlobalVariableDefs.obj (EmuKeyVar)

EmuBModeVar 
*          1    00000d01    00000001     UNINITIALIZED
                  00000d01    00000001     F2802x_GlobalVariableDefs.obj (EmuBModeVar)

FlashCallbackVar 
*          1    00000d02    00000002     UNINITIALIZED
                  00000d02    00000002     F2802x_GlobalVariableDefs.obj (FlashCallbackVar)

FlashScalingVar 
*          1    00000d04    00000002     UNINITIALIZED
                  00000d04    00000002     F2802x_GlobalVariableDefs.obj (FlashScalingVar)

Comp1RegsFile 
*          1    00006400    00000011     UNINITIALIZED
                  00006400    00000011     F2802x_GlobalVariableDefs.obj (Comp1RegsFile)

Comp2RegsFile 
*          1    00006420    00000011     UNINITIALIZED
                  00006420    00000011     F2802x_GlobalVariableDefs.obj (Comp2RegsFile)

EPwm1RegsFile 
*          1    00006800    00000040     UNINITIALIZED
                  00006800    00000040     F2802x_GlobalVariableDefs.obj (EPwm1RegsFile)

EPwm2RegsFile 
*          1    00006840    00000040     UNINITIALIZED
                  00006840    00000040     F2802x_GlobalVariableDefs.obj (EPwm2RegsFile)

EPwm3RegsFile 
*          1    00006880    00000040     UNINITIALIZED
                  00006880    00000040     F2802x_GlobalVariableDefs.obj (EPwm3RegsFile)

EPwm4RegsFile 
*          1    000068c0    00000040     UNINITIALIZED
                  000068c0    00000040     F2802x_GlobalVariableDefs.obj (EPwm4RegsFile)

ECap1RegsFile 
*          1    00006a00    00000020     UNINITIALIZED
                  00006a00    00000020     F2802x_GlobalVariableDefs.obj (ECap1RegsFile)

GpioCtrlRegsFile 
*          1    00006f80    00000040     UNINITIALIZED
                  00006f80    00000040     F2802x_GlobalVariableDefs.obj (GpioCtrlRegsFile)

GpioDataRegsFile 
*          1    00006fc0    00000020     UNINITIALIZED
                  00006fc0    00000020     F2802x_GlobalVariableDefs.obj (GpioDataRegsFile)

GpioIntRegsFile 
*          1    00006fe0    0000000a     UNINITIALIZED
                  00006fe0    0000000a     F2802x_GlobalVariableDefs.obj (GpioIntRegsFile)

SysCtrlRegsFile 
*          1    00007010    0000001f     UNINITIALIZED
                  00007010    0000001f     F2802x_GlobalVariableDefs.obj (SysCtrlRegsFile)

SpiaRegsFile 
*          1    00007040    00000010     UNINITIALIZED
                  00007040    00000010     F2802x_GlobalVariableDefs.obj (SpiaRegsFile)

SciaRegsFile 
*          1    00007050    00000010     UNINITIALIZED
                  00007050    00000010     F2802x_GlobalVariableDefs.obj (SciaRegsFile)

NmiIntruptRegsFile 
*          1    00007060    00000010     UNINITIALIZED
                  00007060    00000010     F2802x_GlobalVariableDefs.obj (NmiIntruptRegsFile)

XIntruptRegsFile 
*          1    00007070    00000010     UNINITIALIZED
                  00007070    00000010     F2802x_GlobalVariableDefs.obj (XIntruptRegsFile)

AdcRegsFile 
*          1    00007100    00000051     UNINITIALIZED
                  00007100    00000051     F2802x_GlobalVariableDefs.obj (AdcRegsFile)

I2caRegsFile 
*          1    00007900    00000022     UNINITIALIZED
                  00007900    00000022     F2802x_GlobalVariableDefs.obj (I2caRegsFile)

PartIdRegsFile 
*          1    003d7fff    00000001     UNINITIALIZED
                  003d7fff    00000001     F2802x_GlobalVariableDefs.obj (PartIdRegsFile)

CsmPwlFile 
*          1    003f7ff8    00000008     UNINITIALIZED
                  003f7ff8    00000008     F2802x_GlobalVariableDefs.obj (CsmPwlFile)

.text      0    003f0077    00003048     
                  003f0077    00000c0d     xcp_daq.obj (.text)
                  003f0c84    00000481     xcp_mem_default.obj (.text)
                  003f1105    000003b5     xcp.obj (.text)
                  003f14ba    000002ea     xcp_transport.obj (.text)
                  003f17a4    0000022c     f2802x_adc.obj (.text)
                  003f19d0    00000225     xcp_standard.obj (.text)
                  003f1bf5    0000020f     xcp_frame_serial.obj (.text)
                  003f1e04    000001c4     xcp_ext_classic_trigger.obj (.text)
                  003f1fc8    0000018e     xcp_ext_common.obj (.text)
                  003f2156    0000016e     xcp_ext_mode.obj (.text)
                  003f22c4    00000164     xcp_drv_rtiostream.obj (.text)
                  003f2428    00000141     MW_c28xGPIO.obj (.text)
                  003f2569    00000138     f2802x_sysctrl.obj (.text)
                  003f26a1    0000012d     rtiostream_serial_c28x_ext_xcp.obj (.text)
                  003f27ce    000000ff     f2802x_defaultisr.obj (.text:retain)
                  003f28cd    000000d8     rul_data_acquisition.obj (.text)
                  003f29a5    000000d2     xcp_calibration.obj (.text)
                  003f2a77    000000c3     ert_main.obj (.text)
                  003f2b3a    000000bf     MW_c28xx_adc.obj (.text)
                  003f2bf9    000000b9     datamodify_xcp.obj (.text)
                  003f2cb2    00000073     f2802x_cputimers.obj (.text)
                  003f2d25    00000062     xcp_fifo.obj (.text)
                  003f2d87    0000005a     rts2800_ml.lib : fs_mpy28.asm.obj (.text)
                  003f2de1    0000005a     xcp_utils.obj (.text)
                  003f2e3b    00000054     rts2800_ml.lib : boot28.asm.obj (.text)
                  003f2e8f    0000004d     c2802xSchedulerTimer0.obj (.text)
                  003f2edc    00000034     MW_c28xx_board.obj (.text)
                  003f2f10    0000002b     c2802xSchedulerTimer0.obj (.text:retain)
                  003f2f3b    00000029     rts2800_ml.lib : exit.c.obj (.text)
                  003f2f64    00000029                    : fs_tol28.asm.obj (.text)
                  003f2f8d    00000028     f2802x_piectrl.obj (.text)
                  003f2fb5    00000026     f2802x_pievect.obj (.text)
                  003f2fdb    00000024     rts2800_ml.lib : cpy_tbl.c.obj (.text)
                  003f2fff    0000001f     xcp_ext_param_default_serial.obj (.text)
                  003f301e    0000001d     rts2800_ml.lib : memcpy.c.obj (.text)
                  003f303b    00000017                    : fs_cmp28.asm.obj (.text)
                  003f3052    00000014     MW_c28xGlobalInterrupts.obj (.text)
                  003f3066    00000013     rts2800_ml.lib : ul_tofs28.asm.obj (.text)
                  003f3079    00000011                    : args_main.c.obj (.text)
                  003f308a    0000000f     c2802xBoard_Realtime_Support.obj (.text)
                  003f3099    0000000b     rts2800_ml.lib : u_div28.asm.obj (.text)
                  003f30a4    00000009                    : _lock.c.obj (.text)
                  003f30ad    00000008     f2802x_codestartbranch.obj (.text)
                  003f30b5    00000007     rts2800_ml.lib : memset.c.obj (.text)
                  003f30bc    00000002                    : pre_init.c.obj (.text)
                  003f30be    00000001                    : startup.c.obj (.text)

.switch    0    003f33a4    0000001e     
                  003f33a4    0000001e     xcp.obj (.switch:_genericOutputPacketHandler)

.cinit     0    003f3242    00000162     
                  003f3242    0000005b     xcp_ext_classic_trigger.obj (.cinit)
                  003f329d    0000004c     xcp_ext_common.obj (.cinit)
                  003f32e9    0000001e     xcp_daq.obj (.cinit)
                  003f3307    00000014     xcp.obj (.cinit)
                  003f331b    00000014     xcp_frame_serial.obj (.cinit)
                  003f332f    0000000f     xcp_standard.obj (.cinit)
                  003f333e    0000000e     rts2800_ml.lib : exit.c.obj (.cinit)
                  003f334c    00000009     xcp_mem_default.obj (.cinit:_xcpMemMainBlockSizes)
                  003f3355    00000009     xcp_mem_default.obj (.cinit:_xcpMemMainBlocksNumber)
                  003f335e    00000008     ert_main.obj (.cinit)
                  003f3366    00000008     xcp_drv_rtiostream.obj (.cinit)
                  003f336e    00000008     xcp_transport.obj (.cinit)
                  003f3376    00000007     rul_data_acquisition_data.obj (.cinit)
                  003f337d    00000005     rts2800_ml.lib : _lock.c.obj (.cinit:__lock)
                  003f3382    00000005                    : _lock.c.obj (.cinit:__unlock)
                  003f3387    00000005     xcp_ext_common.obj (.cinit:_xcpCurrentSimulationTimeInTicks)
                  003f338c    00000005     rtiostream_serial_c28x_ext_xcp.obj (.cinit)
                  003f3391    00000005     xcp_calibration.obj (.cinit)
                  003f3396    00000004     MW_c28xGPIO.obj (.cinit)
                  003f339a    00000004     MW_c28xGlobalInterrupts.obj (.cinit)
                  003f339e    00000004     rul_data_acquisition.obj (.cinit)
                  003f33a2    00000002     --HOLE-- [fill = 0]

.pinit     0    003f0000    00000000     UNINITIALIZED

.econst    0    003f30c0    00000182     
                  003f30c0    00000100     f2802x_pievect.obj (.econst:_PieVectTableInit)
                  003f31c0    00000048     xcp_daq.obj (.econst:_daqSupportedRxPacket)
                  003f3208    0000002a     xcp_standard.obj (.econst:_standardSupportedRxPacket)
                  003f3232    0000000c     xcp_calibration.obj (.econst:_calibrationSupportedRxPacket)
                  003f323e    00000004     rul_data_acquisition.obj (.econst)

.reset     0    003fffc0    00000002     DSECT
                  003fffc0    00000002     rts2800_ml.lib : boot28.asm.obj (.reset)

.data      0    00008000    00000000     UNINITIALIZED

.stack     1    00000002    00000300     UNINITIALIZED
                  00000002    00000300     --HOLE--

codestart 
*          0    003f7ff6    00000002     
                  003f7ff6    00000002     f2802x_codestartbranch.obj (codestart)

ramfuncs   0    003f0000    00000077     RUN ADDR = 0000853f
                  003f0000    0000002f     rtiostream_serial_c28x_ext_xcp.obj (ramfuncs:retain)
                  003f002f    00000029     datamodify_xcp.obj (ramfuncs)
                  003f0058    0000001b     f2802x_sysctrl.obj (ramfuncs)
                  003f0073    00000004     f2802x_usdelay.obj (ramfuncs)

MODULE SUMMARY

       Module                               code    initialized data   uninitialized data
       ------                               ----    ----------------   ------------------
    <current directory>
       xcp_daq.obj                          3085    102                24                
       xcp_mem_default.obj                  1153    18                 1045              
       F2802x_GlobalVariableDefs.obj        0       0                  1022              
       xcp.obj                              949     50                 13                
       xcp_transport.obj                    746     8                  16                
       xcp_standard.obj                     549     57                 8                 
       xcp_ext_classic_trigger.obj          452     91                 28                
       f2802x_adc.obj                       556     0                  0                 
       xcp_frame_serial.obj                 527     20                 5                 
       xcp_ext_common.obj                   398     81                 34                
       rtiostream_serial_c28x_ext_xcp.obj   395     5                  2                 
       xcp_ext_mode.obj                     366     0                  4                 
       f2802x_sysctrl.obj                   366     0                  0                 
       xcp_drv_rtiostream.obj               356     8                  2                 
       datamodify_xcp.obj                   267     0                  66                
       MW_c28xGPIO.obj                      321     4                  1                 
       f2802x_pievect.obj                   38      256                0                 
       rul_data_acquisition.obj             216     8                  50                
       f2802x_defaultisr.obj                255     0                  0                 
       xcp_calibration.obj                  210     17                 2                 
       ert_main.obj                         195     8                  4                 
       MW_c28xx_adc.obj                     191     0                  0                 
       f2802x_cputimers.obj                 115     0                  24                
       c2802xSchedulerTimer0.obj            120     0                  0                 
       xcp_fifo.obj                         98      0                  0                 
       xcp_utils.obj                        90      0                  0                 
       MW_c28xx_board.obj                   52      0                  0                 
       f2802x_piectrl.obj                   40      0                  0                 
       xcp_ext_param_default_serial.obj     31      0                  0                 
       MW_c28xGlobalInterrupts.obj          20      4                  1                 
       c2802xBoard_Realtime_Support.obj     15      0                  0                 
       rul_data_acquisition_data.obj        0       7                  4                 
       f2802x_codestartbranch.obj           10      0                  0                 
       f2802x_usdelay.obj                   8       0                  0                 
    +--+------------------------------------+-------+------------------+--------------------+
       Total:                               12190   744                2355              
                                                                                         
    C:/PROGRA~3/MATLAB/tic2000/3P778C~1.INS/TIC28X~1.INS/TI-CGT~1.LTS/lib/rts2800_ml.lib
       fs_mpy28.asm.obj                     90      0                  0                 
       boot28.asm.obj                       84      0                  0                 
       exit.c.obj                           41      14                 6                 
       fs_tol28.asm.obj                     41      0                  0                 
       cpy_tbl.c.obj                        36      0                  0                 
       memcpy.c.obj                         29      0                  0                 
       _lock.c.obj                          9       10                 4                 
       fs_cmp28.asm.obj                     23      0                  0                 
       ul_tofs28.asm.obj                    19      0                  0                 
       args_main.c.obj                      17      0                  0                 
       u_div28.asm.obj                      11      0                  0                 
       memset.c.obj                         7       0                  0                 
       pre_init.c.obj                       2       0                  0                 
       startup.c.obj                        1       0                  0                 
    +--+------------------------------------+-------+------------------+--------------------+
       Total:                               410     24                 10                
                                                                                         
       Stack:                               0       0                  768               
    +--+------------------------------------+-------+------------------+--------------------+
       Grand Total:                         12600   768                3133              


GLOBAL DATA SYMBOLS: SORTED BY DATA PAGE

address     data page           name
--------    ----------------    ----
00000002       0 (00000000)     __stack

00000880      22 (00000880)     _DevEmuRegs

00000985      26 (00000980)     _SysPwrCtrlRegs

00000a80      2a (00000a80)     _FlashRegs

00000ae0      2b (00000ac0)     _CsmRegs

00000b00      2c (00000b00)     _AdcResult

00000c00      30 (00000c00)     _CpuTimer0Regs
00000c08      30 (00000c00)     _CpuTimer1Regs
00000c10      30 (00000c00)     _CpuTimer2Regs

00000ce0      33 (00000cc0)     _PieCtrlRegs

00000d00      34 (00000d00)     _EmuKey
00000d00      34 (00000d00)     _PieVectTable
00000d01      34 (00000d00)     _EmuBMode
00000d02      34 (00000d00)     _Flash_CallbackPtr
00000d04      34 (00000d00)     _Flash_CPUScaleFactor

00006400     190 (00006400)     _Comp1Regs
00006420     190 (00006400)     _Comp2Regs

00006800     1a0 (00006800)     _EPwm1Regs

00006840     1a1 (00006840)     _EPwm2Regs

00006880     1a2 (00006880)     _EPwm3Regs

000068c0     1a3 (000068c0)     _EPwm4Regs

00006a00     1a8 (00006a00)     _ECap1Regs

00006f80     1be (00006f80)     _GpioCtrlRegs

00006fc0     1bf (00006fc0)     _GpioDataRegs
00006fe0     1bf (00006fc0)     _GpioIntRegs

00007010     1c0 (00007000)     _SysCtrlRegs

00007040     1c1 (00007040)     _SpiaRegs
00007050     1c1 (00007040)     _SciaRegs
00007060     1c1 (00007040)     _NmiIntruptRegs
00007070     1c1 (00007040)     _XIntruptRegs

00007100     1c4 (00007100)     _AdcRegs

00007900     1e4 (00007900)     _I2caRegs

00008326     20c (00008300)     _CpuTimer0
0000832e     20c (00008300)     _CpuTimer1
00008336     20c (00008300)     _CpuTimer2
0000833e     20c (00008300)     __lock

000083df     20f (000083c0)     _GPIO_oneTimeInit
000083e0     20f (000083c0)     _xcpModelStartRequest
000083e1     20f (000083c0)     _xcpModelStopRequest
000083e2     20f (000083c0)     _xcpModelStatus
000083e3     20f (000083c0)     _xcpExtmodeSimulationComplete
000083e6     20f (000083c0)     _xcpModelChecksum0
000083e8     20f (000083c0)     _xcpModelChecksum1
000083ea     20f (000083c0)     _xcpModelChecksum2
000083ec     20f (000083c0)     _xcpModelChecksum3
000083ee     20f (000083c0)     _xcpModelIntegerCode
000083f0     20f (000083c0)     _xcpExtmodeFinalSimulationTime
000083f2     20f (000083c0)     _xcpDummyDoubleVariable
000083fe     20f (000083c0)     __unlock

00008400     210 (00008400)     _queRx

00008480     212 (00008480)     _MW_adcInitFlag
0000848c     212 (00008480)     _rul_data_acquisition_B

000084c0     213 (000084c0)     _xcpClassicTriggerEventId
000084c1     213 (000084c0)     _xcpClassicTriggerSignalAddressExtension
000084c2     213 (000084c0)     _xcpClassicTriggerDirection
000084c3     213 (000084c0)     _xcpClassicTriggerArmRequest
000084c4     213 (000084c0)     _xcpClassicTriggerCancelRequest
000084c5     213 (000084c0)     _xcpClassicTriggerSource
000084c6     213 (000084c0)     _xcpClassicTriggerMode
000084c7     213 (000084c0)     _xcpClassicTriggerStatus
000084ce     213 (000084c0)     _xcpClassicTriggerSignalAddress
000084d0     213 (000084c0)     _xcpClassicTriggerLevel
000084d2     213 (000084c0)     _xcpClassicTriggerDuration
000084d4     213 (000084c0)     _xcpClassicTriggerHoldOff
000084d6     213 (000084c0)     _xcpClassicTriggerDelay

0000850c     214 (00008500)     ___TI_enable_exit_profile_output
0000850e     214 (00008500)     ___TI_cleanup_ptr
00008510     214 (00008500)     ___TI_dtors_ptr
0000851c     214 (00008500)     _xcpCurrentSimulationTimeInTicks
00008528     214 (00008500)     _IsrOverrun
0000852a     214 (00008500)     _stopRequested
0000852b     214 (00008500)     _runModel
0000852c     214 (00008500)     _rul_data_acquisition_P
00008538     214 (00008500)     _MW_SCI_PTR
0000853e     214 (00008500)     _MW_InterruptDisableLock

003d7fff    f5ff (003d7fc0)     _PartIdRegs

003f30c0    fcc3 (003f30c0)     _PieVectTableInit

003f3240    fcc9 (003f3240)     _rul_data_acquisition_M

003f7ff8    fdff (003f7fc0)     _CsmPwl


GLOBAL SYMBOLS: SORTED ALPHABETICALLY BY Name 

page  address   name                                            
----  -------   ----                                            
0     00008000  .bss                                            
0     00008000  .data                                           
0     003f0077  .text                                           
0     003f2f3b  C$$EXIT                                         
0     003f303b  FS$$CMP                                         
0     003f2d87  FS$$MPY                                         
0     003f2f64  FS$$TOL                                         
0     003f3099  U$$DIV                                          
0     003f309e  U$$MOD                                          
0     003f3066  UL$$TOFS                                        
0     003f282d  _ADCINT1_ISR                                    
0     003f2832  _ADCINT2_ISR                                    
0     003f289b  _ADCINT3_ISR                                    
0     003f28a0  _ADCINT4_ISR                                    
0     003f28a5  _ADCINT5_ISR                                    
0     003f28aa  _ADCINT6_ISR                                    
0     003f28af  _ADCINT7_ISR                                    
0     003f28b4  _ADCINT8_ISR                                    
0     003f2841  _ADCINT9_ISR                                    
0     003f180b  _AdcChanSelect                                  
0     003f1880  _AdcConversion                                  
0     003f17e4  _AdcOffsetSelfCal                               
1     00007100  _AdcRegs                                        
1     00000b00  _AdcResult                                      
0     003f2c42  _BytePacker16bits                               
0     003f2c1c  _BytePacker32bits                               
0     003f2bf9  _BytePackerInplace32bits                        
1     00006400  _Comp1Regs                                      
1     00006420  _Comp2Regs                                      
0     003f2cf3  _ConfigCpuTimer                                 
0     00008326  _CpuTimer0                                      
1     00000c00  _CpuTimer0Regs                                  
0     0000832e  _CpuTimer1                                      
1     00000c08  _CpuTimer1Regs                                  
0     00008336  _CpuTimer2                                      
1     00000c10  _CpuTimer2Regs                                  
1     003f7ff8  _CsmPwl                                         
1     00000ae0  _CsmRegs                                        
0     003f261b  _CsmUnlock                                      
0     003f27d8  _DATALOG_ISR                                    
0     000085b2  _DSP28x_usDelay                                 
1     00000880  _DevEmuRegs                                     
0     003f258d  _DisableDog                                     
0     003f2878  _ECAP1_INT_ISR                                  
1     00006a00  _ECap1Regs                                      
0     003f28be  _EMPTY_ISR                                      
0     003f27e2  _EMUINT_ISR                                     
0     003f2864  _EPWM1_INT_ISR                                  
0     003f2850  _EPWM1_TZINT_ISR                                
0     003f2869  _EPWM2_INT_ISR                                  
0     003f2855  _EPWM2_TZINT_ISR                                
0     003f286e  _EPWM3_INT_ISR                                  
0     003f285a  _EPWM3_TZINT_ISR                                
0     003f2873  _EPWM4_INT_ISR                                  
0     003f285f  _EPWM4_TZINT_ISR                                
1     00006800  _EPwm1Regs                                      
1     00006840  _EPwm2Regs                                      
1     00006880  _EPwm3Regs                                      
1     000068c0  _EPwm4Regs                                      
1     00000d01  _EmuBMode                                       
1     00000d00  _EmuKey                                         
0     003f2fac  _EnableInterrupts                               
0     003f268b  _ExtOscSel                                      
1     00000a80  _FlashRegs                                      
1     00000d04  _Flash_CPUScaleFactor                           
1     00000d02  _Flash_CallbackPtr                              
0     003f250f  _GPIO_ReadPin                                   
0     003f245c  _GPIO_SetupPinMux                               
0     003f249a  _GPIO_SetupPinOptions                           
0     003f2544  _GPIO_TogglePin                                 
0     003f2526  _GPIO_WritePin                                  
0     000083df  _GPIO_oneTimeInit                               
1     00006f80  _GpioCtrlRegs                                   
1     00006fc0  _GpioDataRegs                                   
1     00006fe0  _GpioIntRegs                                    
0     003f2887  _I2CINT1A_ISR                                   
0     003f288c  _I2CINT2A_ISR                                   
1     00007900  _I2caRegs                                       
0     003f27ec  _ILLEGAL_ISR                                    
0     003f27ce  _INT13_ISR                                      
0     003f27d3  _INT14_ISR                                      
0     003f17a4  _InitAdc                                        
0     003f17c2  _InitAdcAio                                     
0     003f2cb2  _InitCpuTimers                                  
0     00008597  _InitFlash                                      
0     003f242f  _InitGpio                                       
0     003f25e9  _InitPeripheralClocks                           
0     003f2f8d  _InitPieCtrl                                    
0     003f2fb5  _InitPieVectTable                               
0     003f2595  _InitPll                                        
0     003f2569  _InitSysCtrl                                    
0     003f264c  _IntOsc1Sel                                     
0     003f265c  _IntOsc2Sel                                     
0     00008528  _IsrOverrun                                     
0     0000853e  _MW_InterruptDisableLock                        
0     00008538  _MW_SCI_PTR                                     
0     00008480  _MW_adcInitFlag                                 
0     003f27e7  _NMI_ISR                                        
1     00007060  _NmiIntruptRegs                                 
0     003f2428  _OneTimeGpioInit                                
0     003f28c3  _PIE_RESERVED                                   
1     003d7fff  _PartIdRegs                                     
1     00000ce0  _PieCtrlRegs                                    
1     00000d00  _PieVectTable                                   
0     003f30c0  _PieVectTableInit                               
0     003f27dd  _RTOSINT_ISR                                    
0     003f0077  _RamfuncsLoadEnd                                
0     003f0000  _RamfuncsLoadStart                              
0     0000853f  _RamfuncsRunStart                               
0     003f2891  _SCIRXINTA_ISR                                  
0     0000853f  _SCIRXINT_isr                                   
0     003f2896  _SCITXINTA_ISR                                  
0     003f287d  _SPIRXINTA_ISR                                  
0     003f2882  _SPITXINTA_ISR                                  
1     00007050  _SciaRegs                                       
0     003f2583  _ServiceDog                                     
0     003f255b  _Set_GPIOPin                                    
1     00007040  _SpiaRegs                                       
1     00007010  _SysCtrlRegs                                    
1     00000985  _SysPwrCtrlRegs                                 
0     003f2846  _TINT0_ISR                                      
0     003f2f10  _TINT0_isr                                      
0     003f281e  _USER10_ISR                                     
0     003f2823  _USER11_ISR                                     
0     003f2828  _USER12_ISR                                     
0     003f27f1  _USER1_ISR                                      
0     003f27f6  _USER2_ISR                                      
0     003f27fb  _USER3_ISR                                      
0     003f2800  _USER4_ISR                                      
0     003f2805  _USER5_ISR                                      
0     003f280a  _USER6_ISR                                      
0     003f280f  _USER7_ISR                                      
0     003f2814  _USER8_ISR                                      
0     003f2819  _USER9_ISR                                      
0     003f284b  _WAKEINT_ISR                                    
0     003f2837  _XINT1_ISR                                      
0     003f283c  _XINT2_ISR                                      
0     003f28b9  _XINT3_ISR                                      
1     00007070  _XIntruptRegs                                   
0     003f2670  _XtalOscSel                                     
1     00000302  __STACK_END                                     
abs   00000300  __STACK_SIZE                                    
0     0000850e  ___TI_cleanup_ptr                               
0     00008510  ___TI_dtors_ptr                                 
0     0000850c  ___TI_enable_exit_profile_output                
abs   ffffffff  ___TI_pprof_out_hndl                            
abs   ffffffff  ___TI_prof_data_size                            
abs   ffffffff  ___TI_prof_data_start                           
abs   ffffffff  ___binit__                                      
0     00008000  ___bss__                                        
abs   ffffffff  ___c_args__                                     
0     003f3242  ___cinit__                                      
0     00008000  ___data__                                       
0     00008000  ___edata__                                      
0     00008000  ___end__                                        
0     003f30bf  ___etext__                                      
abs   ffffffff  ___pinit__                                      
0     003f0077  ___text__                                       
0     003f3079  __args_main                                     
0     0000833e  __lock                                          
0     003f30ac  __nop                                           
0     003f30a8  __register_lock                                 
0     003f30a4  __register_unlock                               
1     00000002  __stack                                         
0     003f30be  __system_post_cinit                             
0     003f30bc  __system_pre_init                               
0     000083fe  __unlock                                        
0     003f2f3b  _abort                                          
0     003f2c8b  _addElement                                     
0     003f308a  _c2000_flash_init                               
0     003f2e3b  _c_int00                                        
0     003f2b3a  _config_ADC_SOC0                                
0     003f2b6a  _config_ADC_SOC1                                
0     003f2b9a  _config_ADC_SOC2                                
0     003f2bca  _config_ADC_SOC3                                
0     003f2e8f  _configureTimer0                                
0     003f2fdb  _copy_in                                        
0     0000856e  _deleteElement                                  
0     003f2ebb  _disableTimer0Interrupt                         
0     003f2eb3  _enableTimer0Interrupt                          
0     003f26a1  _enable_interrupts_sci                          
0     003f2f3d  _exit                                           
0     003f2250  _extmodeBackgroundRun                           
0     003f2209  _extmodeEvent                                   
0     003f2296  _extmodeGetEventTriggerEnable                   
0     003f2279  _extmodeGetFinalSimulationTime                  
0     003f215d  _extmodeInit                                    
0     003f2156  _extmodeParseArgs                               
0     003f2258  _extmodeReset                                   
0     003f22b0  _extmodeSetEventTriggerEnable                   
0     003f228e  _extmodeSetFinalSimulationTime                  
0     003f2275  _extmodeSimulationComplete                      
0     003f2271  _extmodeStartRequested                          
0     003f226d  _extmodeStopRequested                           
0     003f21b7  _extmodeWaitForHostRequest                      
0     003f122c  _genericOutputPacketHandler                     
0     003f305e  _globalInterruptDisable                         
0     003f3052  _globalInterruptEnable                          
0     003f2c65  _initQue                                        
0     003f2706  _init_SCI_external_mode                         
0     003f2edc  _init_board                                     
0     003f2c72  _isEmpty                                        
0     003f2c7e  _isFull                                         
0     003f2a9a  _main                                           
0     003f301e  _memcpy                                         
0     003f30b5  _memset                                         
0     00008400  _queRx                                          
0     003f2ed1  _restoreTimer0Interrupt                         
0     003f28c8  _rsvd_ISR                                       
0     003f26ce  _rtIOStreamClose                                
0     003f26b0  _rtIOStreamOpen                                 
0     003f26f0  _rtIOStreamRecv                                 
0     003f26d4  _rtIOStreamSend                                 
0     003f26e2  _rtIOStreamSend8Bits                            
0     003f2a77  _rt_OneStep                                     
0     0000848c  _rul_data_acquisition_B                         
0     003f3240  _rul_data_acquisition_M                         
0     0000852c  _rul_data_acquisition_P                         
0     003f2920  _rul_data_acquisition_initialize                
0     003f28cd  _rul_data_acquisition_step                      
0     003f29a4  _rul_data_acquisition_terminate                 
0     0000852b  _runModel                                       
0     003f276f  _sci_rcv_external_mode                          
0     003f27ad  _sci_xmit_external_mode                         
0     0000852a  _stopRequested                                  
0     003f2a6a  _xcpCalibrationGetPacketLookup                  
0     003f2a65  _xcpCalibrationInit                             
0     003f2a76  _xcpCalibrationReset                            
0     003f2a6e  _xcpCalibrationSetPacketLookup                  
0     000084c3  _xcpClassicTriggerArmRequest                    
0     000084c4  _xcpClassicTriggerCancelRequest                 
0     000084d6  _xcpClassicTriggerDelay                         
0     000084c2  _xcpClassicTriggerDirection                     
0     000084d2  _xcpClassicTriggerDuration                      
0     000084c0  _xcpClassicTriggerEventId                       
0     000084d4  _xcpClassicTriggerHoldOff                       
0     000084d0  _xcpClassicTriggerLevel                         
0     000084c6  _xcpClassicTriggerMode                          
0     000084ce  _xcpClassicTriggerSignalAddress                 
0     000084c1  _xcpClassicTriggerSignalAddressExtension        
0     000084c5  _xcpClassicTriggerSource                        
0     000084c7  _xcpClassicTriggerStatus                        
0     0000851c  _xcpCurrentSimulationTimeInTicks                
0     003f0a73  _xcpDaqEvent                                    
0     003f0ac6  _xcpDaqEventsFlush                              
0     003f0c82  _xcpDaqExtendedInit                             
0     003f0c83  _xcpDaqExtendedReset                            
0     003f0c61  _xcpDaqGetCustomPoolMemoryManager               
0     003f08de  _xcpDaqGetPacketLookup                          
0     003f08ce  _xcpDaqInit                                     
0     003f0b99  _xcpDaqLock                                     
0     003f0c42  _xcpDaqReset                                    
0     003f0c4b  _xcpDaqSetCustomPoolMemoryManager               
0     003f08e2  _xcpDaqSetPacketLookup                          
0     003f0ba2  _xcpDaqUnlock                                   
0     003f240d  _xcpDrvClose                                    
0     003f22de  _xcpDrvIoctl                                    
0     003f22c4  _xcpDrvOpen                                     
0     003f235e  _xcpDrvRecv                                     
0     003f23ca  _xcpDrvRecvUnknownSize                          
0     003f22f2  _xcpDrvSend                                     
0     000083f2  _xcpDummyDoubleVariable                         
0     003f13a1  _xcpEvent                                       
0     003f13b7  _xcpEventExternalTimestamp                      
0     003f13c9  _xcpEventNotificationReq                        
0     003f1f48  _xcpExtModeClassicTriggerEnabled                
0     003f1faa  _xcpExtModeClassicTriggerForceEnableStatusUpdate
0     003f1f39  _xcpExtModeClassicTriggerInit                   
0     003f1f88  _xcpExtModeClassicTriggerReset                  
0     003f2088  _xcpExtModeGetSimulationTime                    
0     003f206a  _xcpExtModeGetUpdatedTimestamp                  
0     003f208f  _xcpExtModeInit                                 
0     003f2fff  _xcpExtModeParseArgs                            
0     003f2110  _xcpExtModeReset                                
0     003f20b7  _xcpExtModeRunBackground                        
0     003f2063  _xcpExtModeUpdateTime                           
0     000083f0  _xcpExtmodeFinalSimulationTime                  
0     000083e3  _xcpExtmodeSimulationComplete                   
0     003f2d3d  _xcpFifoDequeue                                 
0     003f2d78  _xcpFifoEmpty                                   
0     003f2d2e  _xcpFifoEnqueue                                 
0     003f2d51  _xcpFifoEnqueueHead                             
0     003f2d25  _xcpFifoInit                                    
0     003f2d81  _xcpFifoReset                                   
0     003f2d61  _xcpFifoSpliceHead                              
0     003f12c2  _xcpFindPacket                                  
0     003f1d3b  _xcpFrameCreateMsg                              
0     003f1d69  _xcpFrameExtractPacket                          
0     003f1dd7  _xcpFrameHeaderSize                             
0     003f1c1a  _xcpFrameInit                                   
0     003f1ddf  _xcpFrameMaxCtoSize                             
0     003f1ddb  _xcpFrameMaxDtoSize                             
0     003f1cb2  _xcpFrameMsgRecv                                
0     003f1c34  _xcpFrameMsgSend                                
0     003f1def  _xcpFrameReset                                  
0     003f1de1  _xcpFrameRestart                                
0     003f1de8  _xcpFrameSetCtoReservedMemPoolId                
0     003f1dd9  _xcpFrameTailSize                               
0     003f149b  _xcpGetCustomPoolMemoryManager                  
0     003f3011  _xcpGetInitParameters                           
0     003f147f  _xcpGetStatus                                   
0     003f2071  _xcpGetTimestamp                                
0     003f12e6  _xcpInit                                        
0     003f0d7a  _xcpMemAlloc                                    
0     003f104f  _xcpMemAllocFromPool                            
0     003f0fc5  _xcpMemCustomPoolCreate                         
0     003f101d  _xcpMemCustomPoolDestroy                        
0     003f0de5  _xcpMemFree                                     
0     003f0cb5  _xcpMemInit                                     
0     003f0e76  _xcpMemReservedPoolCreate                       
0     003f0f3d  _xcpMemReservedPoolDestroy                      
0     003f10ec  _xcpMemReset                                    
0     000083e6  _xcpModelChecksum0                              
0     000083e8  _xcpModelChecksum1                              
0     000083ea  _xcpModelChecksum2                              
0     000083ec  _xcpModelChecksum3                              
0     000083ee  _xcpModelIntegerCode                            
0     000083e0  _xcpModelStartRequest                           
0     000083e2  _xcpModelStatus                                 
0     000083e1  _xcpModelStopRequest                            
0     003f14ae  _xcpPackedModeEventReset                        
0     003f14a7  _xcpPackedModeEventsFlush                       
0     003f1424  _xcpRemoteServiceReq                            
0     003f1483  _xcpReset                                       
0     003f0ba6  _xcpResetDaqListStatus                          
0     003f1219  _xcpResourceProtectionClearMask                 
0     003f120f  _xcpResourceProtectionSetMask                   
0     003f1204  _xcpResourceProtectionStatusGet                 
0     003f1208  _xcpResourceProtectionStatusSet                 
0     003f130c  _xcpRun                                         
0     003f1221  _xcpSessionConfigurationIdGet                   
0     003f1225  _xcpSessionConfigurationIdSet                   
0     003f11fc  _xcpSessionStatusClearMask                      
0     003f11e7  _xcpSessionStatusGet                            
0     003f11eb  _xcpSessionStatusSet                            
0     003f11f2  _xcpSessionStatusSetMask                        
0     003f1492  _xcpSetCustomPoolMemoryManager                  
0     003f2de1  _xcpSortArray                                   
0     003f1bf3  _xcpStandardExtendedInit                        
0     003f1bf4  _xcpStandardExtendedReset                       
0     003f1bc8  _xcpStandardGetAddressFromMta                   
0     003f1bde  _xcpStandardGetMta                              
0     003f1bb6  _xcpStandardGetPacketLookup                     
0     003f1bea  _xcpStandardIncrementMta                        
0     003f1baf  _xcpStandardInit                                
0     003f1bc2  _xcpStandardReset                               
0     003f1bcc  _xcpStandardSetMta                              
0     003f1bba  _xcpStandardSetPacketLookup                     
0     003f11dc  _xcpStatusGet                                   
0     003f11e0  _xcpStatusSet                                   
0     003f1bff  _xcpSxiChecksum                                 
0     003f1760  _xcpTransportCtoReservedMemPoolId               
0     003f3004  _xcpTransportGetInitParameters                  
0     003f1520  _xcpTransportInit                               
0     003f1743  _xcpTransportMaxCtoSize                         
0     003f1740  _xcpTransportMaxDtoSize                         
0     003f1717  _xcpTransportMsgBufferSize                      
0     003f170b  _xcpTransportPacketOffset                       
0     003f1764  _xcpTransportReset                              
0     003f1746  _xcpTransportRestart                            
0     003f1754  _xcpTransportResynch                            
0     003f166d  _xcpTransportRx                                 
0     003f16a4  _xcpTransportRxPacketGet                        
0     003f15f2  _xcpTransportTx                                 
0     003f1586  _xcpTransportTxPacketSet                        
0     003f157a  _xcpTransportTxReady                            
0     003f1580  _xcpTransportTxTrigger                          
0     003f1fc8  _xcp_void_printf                                
abs   ffffffff  binit                                           
0     003f3242  cinit                                           
0     003f7ff6  code_start                                      
0     00008000  edata                                           
0     00008000  end                                             
0     003f30bf  etext                                           
abs   ffffffff  pinit                                           


GLOBAL SYMBOLS: SORTED BY Symbol Address 

page  address   name                                            
----  -------   ----                                            
0     00008000  .bss                                            
0     00008000  .data                                           
0     00008000  ___bss__                                        
0     00008000  ___data__                                       
0     00008000  ___edata__                                      
0     00008000  ___end__                                        
0     00008000  edata                                           
0     00008000  end                                             
0     00008326  _CpuTimer0                                      
0     0000832e  _CpuTimer1                                      
0     00008336  _CpuTimer2                                      
0     0000833e  __lock                                          
0     000083df  _GPIO_oneTimeInit                               
0     000083e0  _xcpModelStartRequest                           
0     000083e1  _xcpModelStopRequest                            
0     000083e2  _xcpModelStatus                                 
0     000083e3  _xcpExtmodeSimulationComplete                   
0     000083e6  _xcpModelChecksum0                              
0     000083e8  _xcpModelChecksum1                              
0     000083ea  _xcpModelChecksum2                              
0     000083ec  _xcpModelChecksum3                              
0     000083ee  _xcpModelIntegerCode                            
0     000083f0  _xcpExtmodeFinalSimulationTime                  
0     000083f2  _xcpDummyDoubleVariable                         
0     000083fe  __unlock                                        
0     00008400  _queRx                                          
0     00008480  _MW_adcInitFlag                                 
0     0000848c  _rul_data_acquisition_B                         
0     000084c0  _xcpClassicTriggerEventId                       
0     000084c1  _xcpClassicTriggerSignalAddressExtension        
0     000084c2  _xcpClassicTriggerDirection                     
0     000084c3  _xcpClassicTriggerArmRequest                    
0     000084c4  _xcpClassicTriggerCancelRequest                 
0     000084c5  _xcpClassicTriggerSource                        
0     000084c6  _xcpClassicTriggerMode                          
0     000084c7  _xcpClassicTriggerStatus                        
0     000084ce  _xcpClassicTriggerSignalAddress                 
0     000084d0  _xcpClassicTriggerLevel                         
0     000084d2  _xcpClassicTriggerDuration                      
0     000084d4  _xcpClassicTriggerHoldOff                       
0     000084d6  _xcpClassicTriggerDelay                         
0     0000850c  ___TI_enable_exit_profile_output                
0     0000850e  ___TI_cleanup_ptr                               
0     00008510  ___TI_dtors_ptr                                 
0     0000851c  _xcpCurrentSimulationTimeInTicks                
0     00008528  _IsrOverrun                                     
0     0000852a  _stopRequested                                  
0     0000852b  _runModel                                       
0     0000852c  _rul_data_acquisition_P                         
0     00008538  _MW_SCI_PTR                                     
0     0000853e  _MW_InterruptDisableLock                        
0     0000853f  _RamfuncsRunStart                               
0     0000853f  _SCIRXINT_isr                                   
0     0000856e  _deleteElement                                  
0     00008597  _InitFlash                                      
0     000085b2  _DSP28x_usDelay                                 
0     003f0000  _RamfuncsLoadStart                              
0     003f0077  .text                                           
0     003f0077  _RamfuncsLoadEnd                                
0     003f0077  ___text__                                       
0     003f08ce  _xcpDaqInit                                     
0     003f08de  _xcpDaqGetPacketLookup                          
0     003f08e2  _xcpDaqSetPacketLookup                          
0     003f0a73  _xcpDaqEvent                                    
0     003f0ac6  _xcpDaqEventsFlush                              
0     003f0b99  _xcpDaqLock                                     
0     003f0ba2  _xcpDaqUnlock                                   
0     003f0ba6  _xcpResetDaqListStatus                          
0     003f0c42  _xcpDaqReset                                    
0     003f0c4b  _xcpDaqSetCustomPoolMemoryManager               
0     003f0c61  _xcpDaqGetCustomPoolMemoryManager               
0     003f0c82  _xcpDaqExtendedInit                             
0     003f0c83  _xcpDaqExtendedReset                            
0     003f0cb5  _xcpMemInit                                     
0     003f0d7a  _xcpMemAlloc                                    
0     003f0de5  _xcpMemFree                                     
0     003f0e76  _xcpMemReservedPoolCreate                       
0     003f0f3d  _xcpMemReservedPoolDestroy                      
0     003f0fc5  _xcpMemCustomPoolCreate                         
0     003f101d  _xcpMemCustomPoolDestroy                        
0     003f104f  _xcpMemAllocFromPool                            
0     003f10ec  _xcpMemReset                                    
0     003f11dc  _xcpStatusGet                                   
0     003f11e0  _xcpStatusSet                                   
0     003f11e7  _xcpSessionStatusGet                            
0     003f11eb  _xcpSessionStatusSet                            
0     003f11f2  _xcpSessionStatusSetMask                        
0     003f11fc  _xcpSessionStatusClearMask                      
0     003f1204  _xcpResourceProtectionStatusGet                 
0     003f1208  _xcpResourceProtectionStatusSet                 
0     003f120f  _xcpResourceProtectionSetMask                   
0     003f1219  _xcpResourceProtectionClearMask                 
0     003f1221  _xcpSessionConfigurationIdGet                   
0     003f1225  _xcpSessionConfigurationIdSet                   
0     003f122c  _genericOutputPacketHandler                     
0     003f12c2  _xcpFindPacket                                  
0     003f12e6  _xcpInit                                        
0     003f130c  _xcpRun                                         
0     003f13a1  _xcpEvent                                       
0     003f13b7  _xcpEventExternalTimestamp                      
0     003f13c9  _xcpEventNotificationReq                        
0     003f1424  _xcpRemoteServiceReq                            
0     003f147f  _xcpGetStatus                                   
0     003f1483  _xcpReset                                       
0     003f1492  _xcpSetCustomPoolMemoryManager                  
0     003f149b  _xcpGetCustomPoolMemoryManager                  
0     003f14a7  _xcpPackedModeEventsFlush                       
0     003f14ae  _xcpPackedModeEventReset                        
0     003f1520  _xcpTransportInit                               
0     003f157a  _xcpTransportTxReady                            
0     003f1580  _xcpTransportTxTrigger                          
0     003f1586  _xcpTransportTxPacketSet                        
0     003f15f2  _xcpTransportTx                                 
0     003f166d  _xcpTransportRx                                 
0     003f16a4  _xcpTransportRxPacketGet                        
0     003f170b  _xcpTransportPacketOffset                       
0     003f1717  _xcpTransportMsgBufferSize                      
0     003f1740  _xcpTransportMaxDtoSize                         
0     003f1743  _xcpTransportMaxCtoSize                         
0     003f1746  _xcpTransportRestart                            
0     003f1754  _xcpTransportResynch                            
0     003f1760  _xcpTransportCtoReservedMemPoolId               
0     003f1764  _xcpTransportReset                              
0     003f17a4  _InitAdc                                        
0     003f17c2  _InitAdcAio                                     
0     003f17e4  _AdcOffsetSelfCal                               
0     003f180b  _AdcChanSelect                                  
0     003f1880  _AdcConversion                                  
0     003f1baf  _xcpStandardInit                                
0     003f1bb6  _xcpStandardGetPacketLookup                     
0     003f1bba  _xcpStandardSetPacketLookup                     
0     003f1bc2  _xcpStandardReset                               
0     003f1bc8  _xcpStandardGetAddressFromMta                   
0     003f1bcc  _xcpStandardSetMta                              
0     003f1bde  _xcpStandardGetMta                              
0     003f1bea  _xcpStandardIncrementMta                        
0     003f1bf3  _xcpStandardExtendedInit                        
0     003f1bf4  _xcpStandardExtendedReset                       
0     003f1bff  _xcpSxiChecksum                                 
0     003f1c1a  _xcpFrameInit                                   
0     003f1c34  _xcpFrameMsgSend                                
0     003f1cb2  _xcpFrameMsgRecv                                
0     003f1d3b  _xcpFrameCreateMsg                              
0     003f1d69  _xcpFrameExtractPacket                          
0     003f1dd7  _xcpFrameHeaderSize                             
0     003f1dd9  _xcpFrameTailSize                               
0     003f1ddb  _xcpFrameMaxDtoSize                             
0     003f1ddf  _xcpFrameMaxCtoSize                             
0     003f1de1  _xcpFrameRestart                                
0     003f1de8  _xcpFrameSetCtoReservedMemPoolId                
0     003f1def  _xcpFrameReset                                  
0     003f1f39  _xcpExtModeClassicTriggerInit                   
0     003f1f48  _xcpExtModeClassicTriggerEnabled                
0     003f1f88  _xcpExtModeClassicTriggerReset                  
0     003f1faa  _xcpExtModeClassicTriggerForceEnableStatusUpdate
0     003f1fc8  _xcp_void_printf                                
0     003f2063  _xcpExtModeUpdateTime                           
0     003f206a  _xcpExtModeGetUpdatedTimestamp                  
0     003f2071  _xcpGetTimestamp                                
0     003f2088  _xcpExtModeGetSimulationTime                    
0     003f208f  _xcpExtModeInit                                 
0     003f20b7  _xcpExtModeRunBackground                        
0     003f2110  _xcpExtModeReset                                
0     003f2156  _extmodeParseArgs                               
0     003f215d  _extmodeInit                                    
0     003f21b7  _extmodeWaitForHostRequest                      
0     003f2209  _extmodeEvent                                   
0     003f2250  _extmodeBackgroundRun                           
0     003f2258  _extmodeReset                                   
0     003f226d  _extmodeStopRequested                           
0     003f2271  _extmodeStartRequested                          
0     003f2275  _extmodeSimulationComplete                      
0     003f2279  _extmodeGetFinalSimulationTime                  
0     003f228e  _extmodeSetFinalSimulationTime                  
0     003f2296  _extmodeGetEventTriggerEnable                   
0     003f22b0  _extmodeSetEventTriggerEnable                   
0     003f22c4  _xcpDrvOpen                                     
0     003f22de  _xcpDrvIoctl                                    
0     003f22f2  _xcpDrvSend                                     
0     003f235e  _xcpDrvRecv                                     
0     003f23ca  _xcpDrvRecvUnknownSize                          
0     003f240d  _xcpDrvClose                                    
0     003f2428  _OneTimeGpioInit                                
0     003f242f  _InitGpio                                       
0     003f245c  _GPIO_SetupPinMux                               
0     003f249a  _GPIO_SetupPinOptions                           
0     003f250f  _GPIO_ReadPin                                   
0     003f2526  _GPIO_WritePin                                  
0     003f2544  _GPIO_TogglePin                                 
0     003f255b  _Set_GPIOPin                                    
0     003f2569  _InitSysCtrl                                    
0     003f2583  _ServiceDog                                     
0     003f258d  _DisableDog                                     
0     003f2595  _InitPll                                        
0     003f25e9  _InitPeripheralClocks                           
0     003f261b  _CsmUnlock                                      
0     003f264c  _IntOsc1Sel                                     
0     003f265c  _IntOsc2Sel                                     
0     003f2670  _XtalOscSel                                     
0     003f268b  _ExtOscSel                                      
0     003f26a1  _enable_interrupts_sci                          
0     003f26b0  _rtIOStreamOpen                                 
0     003f26ce  _rtIOStreamClose                                
0     003f26d4  _rtIOStreamSend                                 
0     003f26e2  _rtIOStreamSend8Bits                            
0     003f26f0  _rtIOStreamRecv                                 
0     003f2706  _init_SCI_external_mode                         
0     003f276f  _sci_rcv_external_mode                          
0     003f27ad  _sci_xmit_external_mode                         
0     003f27ce  _INT13_ISR                                      
0     003f27d3  _INT14_ISR                                      
0     003f27d8  _DATALOG_ISR                                    
0     003f27dd  _RTOSINT_ISR                                    
0     003f27e2  _EMUINT_ISR                                     
0     003f27e7  _NMI_ISR                                        
0     003f27ec  _ILLEGAL_ISR                                    
0     003f27f1  _USER1_ISR                                      
0     003f27f6  _USER2_ISR                                      
0     003f27fb  _USER3_ISR                                      
0     003f2800  _USER4_ISR                                      
0     003f2805  _USER5_ISR                                      
0     003f280a  _USER6_ISR                                      
0     003f280f  _USER7_ISR                                      
0     003f2814  _USER8_ISR                                      
0     003f2819  _USER9_ISR                                      
0     003f281e  _USER10_ISR                                     
0     003f2823  _USER11_ISR                                     
0     003f2828  _USER12_ISR                                     
0     003f282d  _ADCINT1_ISR                                    
0     003f2832  _ADCINT2_ISR                                    
0     003f2837  _XINT1_ISR                                      
0     003f283c  _XINT2_ISR                                      
0     003f2841  _ADCINT9_ISR                                    
0     003f2846  _TINT0_ISR                                      
0     003f284b  _WAKEINT_ISR                                    
0     003f2850  _EPWM1_TZINT_ISR                                
0     003f2855  _EPWM2_TZINT_ISR                                
0     003f285a  _EPWM3_TZINT_ISR                                
0     003f285f  _EPWM4_TZINT_ISR                                
0     003f2864  _EPWM1_INT_ISR                                  
0     003f2869  _EPWM2_INT_ISR                                  
0     003f286e  _EPWM3_INT_ISR                                  
0     003f2873  _EPWM4_INT_ISR                                  
0     003f2878  _ECAP1_INT_ISR                                  
0     003f287d  _SPIRXINTA_ISR                                  
0     003f2882  _SPITXINTA_ISR                                  
0     003f2887  _I2CINT1A_ISR                                   
0     003f288c  _I2CINT2A_ISR                                   
0     003f2891  _SCIRXINTA_ISR                                  
0     003f2896  _SCITXINTA_ISR                                  
0     003f289b  _ADCINT3_ISR                                    
0     003f28a0  _ADCINT4_ISR                                    
0     003f28a5  _ADCINT5_ISR                                    
0     003f28aa  _ADCINT6_ISR                                    
0     003f28af  _ADCINT7_ISR                                    
0     003f28b4  _ADCINT8_ISR                                    
0     003f28b9  _XINT3_ISR                                      
0     003f28be  _EMPTY_ISR                                      
0     003f28c3  _PIE_RESERVED                                   
0     003f28c8  _rsvd_ISR                                       
0     003f28cd  _rul_data_acquisition_step                      
0     003f2920  _rul_data_acquisition_initialize                
0     003f29a4  _rul_data_acquisition_terminate                 
0     003f2a65  _xcpCalibrationInit                             
0     003f2a6a  _xcpCalibrationGetPacketLookup                  
0     003f2a6e  _xcpCalibrationSetPacketLookup                  
0     003f2a76  _xcpCalibrationReset                            
0     003f2a77  _rt_OneStep                                     
0     003f2a9a  _main                                           
0     003f2b3a  _config_ADC_SOC0                                
0     003f2b6a  _config_ADC_SOC1                                
0     003f2b9a  _config_ADC_SOC2                                
0     003f2bca  _config_ADC_SOC3                                
0     003f2bf9  _BytePackerInplace32bits                        
0     003f2c1c  _BytePacker32bits                               
0     003f2c42  _BytePacker16bits                               
0     003f2c65  _initQue                                        
0     003f2c72  _isEmpty                                        
0     003f2c7e  _isFull                                         
0     003f2c8b  _addElement                                     
0     003f2cb2  _InitCpuTimers                                  
0     003f2cf3  _ConfigCpuTimer                                 
0     003f2d25  _xcpFifoInit                                    
0     003f2d2e  _xcpFifoEnqueue                                 
0     003f2d3d  _xcpFifoDequeue                                 
0     003f2d51  _xcpFifoEnqueueHead                             
0     003f2d61  _xcpFifoSpliceHead                              
0     003f2d78  _xcpFifoEmpty                                   
0     003f2d81  _xcpFifoReset                                   
0     003f2d87  FS$$MPY                                         
0     003f2de1  _xcpSortArray                                   
0     003f2e3b  _c_int00                                        
0     003f2e8f  _configureTimer0                                
0     003f2eb3  _enableTimer0Interrupt                          
0     003f2ebb  _disableTimer0Interrupt                         
0     003f2ed1  _restoreTimer0Interrupt                         
0     003f2edc  _init_board                                     
0     003f2f10  _TINT0_isr                                      
0     003f2f3b  C$$EXIT                                         
0     003f2f3b  _abort                                          
0     003f2f3d  _exit                                           
0     003f2f64  FS$$TOL                                         
0     003f2f8d  _InitPieCtrl                                    
0     003f2fac  _EnableInterrupts                               
0     003f2fb5  _InitPieVectTable                               
0     003f2fdb  _copy_in                                        
0     003f2fff  _xcpExtModeParseArgs                            
0     003f3004  _xcpTransportGetInitParameters                  
0     003f3011  _xcpGetInitParameters                           
0     003f301e  _memcpy                                         
0     003f303b  FS$$CMP                                         
0     003f3052  _globalInterruptEnable                          
0     003f305e  _globalInterruptDisable                         
0     003f3066  UL$$TOFS                                        
0     003f3079  __args_main                                     
0     003f308a  _c2000_flash_init                               
0     003f3099  U$$DIV                                          
0     003f309e  U$$MOD                                          
0     003f30a4  __register_unlock                               
0     003f30a8  __register_lock                                 
0     003f30ac  __nop                                           
0     003f30b5  _memset                                         
0     003f30bc  __system_pre_init                               
0     003f30be  __system_post_cinit                             
0     003f30bf  ___etext__                                      
0     003f30bf  etext                                           
0     003f30c0  _PieVectTableInit                               
0     003f3240  _rul_data_acquisition_M                         
0     003f3242  ___cinit__                                      
0     003f3242  cinit                                           
0     003f7ff6  code_start                                      
1     00000002  __stack                                         
1     00000302  __STACK_END                                     
1     00000880  _DevEmuRegs                                     
1     00000985  _SysPwrCtrlRegs                                 
1     00000a80  _FlashRegs                                      
1     00000ae0  _CsmRegs                                        
1     00000b00  _AdcResult                                      
1     00000c00  _CpuTimer0Regs                                  
1     00000c08  _CpuTimer1Regs                                  
1     00000c10  _CpuTimer2Regs                                  
1     00000ce0  _PieCtrlRegs                                    
1     00000d00  _EmuKey                                         
1     00000d00  _PieVectTable                                   
1     00000d01  _EmuBMode                                       
1     00000d02  _Flash_CallbackPtr                              
1     00000d04  _Flash_CPUScaleFactor                           
1     00006400  _Comp1Regs                                      
1     00006420  _Comp2Regs                                      
1     00006800  _EPwm1Regs                                      
1     00006840  _EPwm2Regs                                      
1     00006880  _EPwm3Regs                                      
1     000068c0  _EPwm4Regs                                      
1     00006a00  _ECap1Regs                                      
1     00006f80  _GpioCtrlRegs                                   
1     00006fc0  _GpioDataRegs                                   
1     00006fe0  _GpioIntRegs                                    
1     00007010  _SysCtrlRegs                                    
1     00007040  _SpiaRegs                                       
1     00007050  _SciaRegs                                       
1     00007060  _NmiIntruptRegs                                 
1     00007070  _XIntruptRegs                                   
1     00007100  _AdcRegs                                        
1     00007900  _I2caRegs                                       
1     003d7fff  _PartIdRegs                                     
1     003f7ff8  _CsmPwl                                         
abs   00000300  __STACK_SIZE                                    
abs   ffffffff  ___TI_pprof_out_hndl                            
abs   ffffffff  ___TI_prof_data_size                            
abs   ffffffff  ___TI_prof_data_start                           
abs   ffffffff  ___binit__                                      
abs   ffffffff  ___c_args__                                     
abs   ffffffff  ___pinit__                                      
abs   ffffffff  binit                                           
abs   ffffffff  pinit                                           

[375 symbols]
